---
triple:          'x86_64-apple-darwin'
binary-path:     '/Users/runner/work/whisper.cpp/whisper.cpp/build-tvos-sim/framework/whisper.framework/whisper'
relocations:
  - { offset: 0x52, size: 0x8, addend: 0x0, symName: __ZL16ASR_TENSOR_NAMES, symObjAddr: 0x58DDB0, symBinAddr: 0x203320, symSize: 0x0 }
  - { offset: 0x17F6F, size: 0x8, addend: 0x0, symName: __ZNSt3__1L19piecewise_constructE, symObjAddr: 0x4BC3C, symBinAddr: 0x15721C, symSize: 0x0 }
  - { offset: 0x5F574, size: 0x8, addend: 0x0, symName: '__ZNSt3__111__introsortINS_17_ClassicAlgPolicyERZL11whisper_vadP15whisper_contextP13whisper_state19whisper_full_paramsPKfiRNS_6vectorIfNS_9allocatorIfEEEEE3$_0P16vad_time_mappingLb0EEEvT1_SI_T0_NS_15iterator_traitsISI_E15difference_typeEb', symObjAddr: 0x39790, symBinAddr: 0x3A250, symSize: 0xB80 }
  - { offset: 0x6113E, size: 0x8, addend: 0x0, symName: '__ZNSt3__127__insertion_sort_incompleteB8ne190102INS_17_ClassicAlgPolicyERZL11whisper_vadP15whisper_contextP13whisper_state19whisper_full_paramsPKfiRNS_6vectorIfNS_9allocatorIfEEEEE3$_0P16vad_time_mappingEEbT1_SI_T0_', symObjAddr: 0x3A310, symBinAddr: 0x3ADD0, symSize: 0x350 }
  - { offset: 0x66E62, size: 0x8, addend: 0x0, symName: '__ZNSt3__111__introsortINS_17_ClassicAlgPolicyERZ35whisper_lang_auto_detect_with_stateE3$_0P12whisper_pairIdiELb0EEEvT1_S7_T0_NS_15iterator_traitsIS7_E15difference_typeEb', symObjAddr: 0x3CA20, symBinAddr: 0x3D4E0, symSize: 0xE30 }
  - { offset: 0x68A02, size: 0x8, addend: 0x0, symName: '__ZNSt3__127__insertion_sort_incompleteB8ne190102INS_17_ClassicAlgPolicyERZ35whisper_lang_auto_detect_with_stateE3$_0P12whisper_pairIdiEEEbT1_S7_T0_', symObjAddr: 0x3D850, symBinAddr: 0x3E310, symSize: 0x460 }
  - { offset: 0x6DD72, size: 0x8, addend: 0x0, symName: '__ZNSt3__111__introsortINS_17_ClassicAlgPolicyERZ23whisper_full_with_stateE3$_1PZ23whisper_full_with_stateE14beam_candidateLb0EEEvT1_S6_T0_NS_15iterator_traitsIS6_E15difference_typeEb', symObjAddr: 0x3EC10, symBinAddr: 0x3F6D0, symSize: 0x25C0 }
  - { offset: 0x75BFE, size: 0x8, addend: 0x0, symName: '__ZNSt3__127__insertion_sort_incompleteB8ne190102INS_17_ClassicAlgPolicyERZ23whisper_full_with_stateE3$_1PZ23whisper_full_with_stateE14beam_candidateEEbT1_S6_T0_', symObjAddr: 0x413D0, symBinAddr: 0x41E90, symSize: 0x590 }
  - { offset: 0x7D60C, size: 0x8, addend: 0x0, symName: __ZNSt3__120__throw_out_of_rangeB8ne190102EPKc, symObjAddr: 0x213F0, symBinAddr: 0x21EB0, symSize: 0x50 }
  - { offset: 0x7D838, size: 0x8, addend: 0x0, symName: __ZNSt3__125__throw_bad_function_callB8ne190102Ev, symObjAddr: 0x21490, symBinAddr: 0x21F50, symSize: 0x40 }
  - { offset: 0x7DC91, size: 0x8, addend: 0x0, symName: __ZNSt3__127__tree_balance_after_insertB8ne190102IPNS_16__tree_node_baseIPvEEEEvT_S5_, symObjAddr: 0x20380, symBinAddr: 0x20E40, symSize: 0x180 }
  - { offset: 0x7E886, size: 0x8, addend: 0x0, symName: __ZNSt3__113__tree_removeB8ne190102IPNS_16__tree_node_baseIPvEEEEvT_S5_, symObjAddr: 0x24F90, symBinAddr: 0x25A50, symSize: 0x380 }
  - { offset: 0x87381, size: 0x8, addend: 0x0, symName: __ZNSt3__120__throw_length_errorB8ne190102EPKc, symObjAddr: 0x20DF0, symBinAddr: 0x218B0, symSize: 0x50 }
  - { offset: 0x8811C, size: 0x8, addend: 0x0, symName: __ZNSt3__114__thread_proxyB8ne190102INS_5tupleIJNS_10unique_ptrINS_15__thread_structENS_14default_deleteIS3_EEEEPFviPKfRKNS_6vectorIfNS_9allocatorIfEEEEiiiiRK15whisper_filtersR11whisper_melEiS8_NS_17reference_wrapperISD_EExiiiNSM_ISG_EENSM_ISI_EEEEEEEPvSR_, symObjAddr: 0x24330, symBinAddr: 0x24DF0, symSize: 0xA0 }
  - { offset: 0x885DC, size: 0x8, addend: 0x0, symName: __ZNSt3__119__throw_regex_errorB8ne190102ILNS_15regex_constants10error_typeE17EEEvv, symObjAddr: 0x26460, symBinAddr: 0x26F20, symSize: 0x50 }
  - { offset: 0x893F3, size: 0x8, addend: 0x0, symName: __ZNSt3__119__throw_regex_errorB8ne190102ILNS_15regex_constants10error_typeE14EEEvv, symObjAddr: 0x26DE0, symBinAddr: 0x278A0, symSize: 0x50 }
  - { offset: 0x89789, size: 0x8, addend: 0x0, symName: __ZNSt3__119__throw_regex_errorB8ne190102ILNS_15regex_constants10error_typeE15EEEvv, symObjAddr: 0x2E330, symBinAddr: 0x2EDF0, symSize: 0x50 }
  - { offset: 0x89A98, size: 0x8, addend: 0x0, symName: __ZNSt3__119__throw_regex_errorB8ne190102ILNS_15regex_constants10error_typeE6EEEvv, symObjAddr: 0x27AB0, symBinAddr: 0x28570, symSize: 0x50 }
  - { offset: 0x89C3E, size: 0x8, addend: 0x0, symName: __ZNSt3__119__throw_regex_errorB8ne190102ILNS_15regex_constants10error_typeE11EEEvv, symObjAddr: 0x29430, symBinAddr: 0x29EF0, symSize: 0x50 }
  - { offset: 0x89C82, size: 0x8, addend: 0x0, symName: __ZNSt3__119__throw_regex_errorB8ne190102ILNS_15regex_constants10error_typeE8EEEvv, symObjAddr: 0x2DC80, symBinAddr: 0x2E740, symSize: 0x50 }
  - { offset: 0x89CA8, size: 0x8, addend: 0x0, symName: __ZNSt3__119__throw_regex_errorB8ne190102ILNS_15regex_constants10error_typeE7EEEvv, symObjAddr: 0x2DCD0, symBinAddr: 0x2E790, symSize: 0x50 }
  - { offset: 0x89DD6, size: 0x8, addend: 0x0, symName: __ZNSt3__119__throw_regex_errorB8ne190102ILNS_15regex_constants10error_typeE12EEEvv, symObjAddr: 0x28860, symBinAddr: 0x29320, symSize: 0x50 }
  - { offset: 0x89DFC, size: 0x8, addend: 0x0, symName: __ZNSt3__119__throw_regex_errorB8ne190102ILNS_15regex_constants10error_typeE16EEEvv, symObjAddr: 0x288B0, symBinAddr: 0x29370, symSize: 0x50 }
  - { offset: 0x8A6F5, size: 0x8, addend: 0x0, symName: __ZNSt3__119__throw_regex_errorB8ne190102ILNS_15regex_constants10error_typeE4EEEvv, symObjAddr: 0x29F40, symBinAddr: 0x2AA00, symSize: 0x50 }
  - { offset: 0x8A71B, size: 0x8, addend: 0x0, symName: __ZNSt3__119__throw_regex_errorB8ne190102ILNS_15regex_constants10error_typeE3EEEvv, symObjAddr: 0x296A0, symBinAddr: 0x2A160, symSize: 0x50 }
  - { offset: 0x8A741, size: 0x8, addend: 0x0, symName: __ZNSt3__119__throw_regex_errorB8ne190102ILNS_15regex_constants10error_typeE5EEEvv, symObjAddr: 0x2BAB0, symBinAddr: 0x2C570, symSize: 0x50 }
  - { offset: 0x8B2CC, size: 0x8, addend: 0x0, symName: __ZNSt3__119__throw_regex_errorB8ne190102ILNS_15regex_constants10error_typeE1EEEvv, symObjAddr: 0x2CFA0, symBinAddr: 0x2DA60, symSize: 0x50 }
  - { offset: 0x8B2F2, size: 0x8, addend: 0x0, symName: __ZNSt3__119__throw_regex_errorB8ne190102ILNS_15regex_constants10error_typeE2EEEvv, symObjAddr: 0x2D580, symBinAddr: 0x2E040, symSize: 0x50 }
  - { offset: 0x8B447, size: 0x8, addend: 0x0, symName: __ZNSt3__119__throw_regex_errorB8ne190102ILNS_15regex_constants10error_typeE9EEEvv, symObjAddr: 0x2D980, symBinAddr: 0x2E440, symSize: 0x50 }
  - { offset: 0x8D68C, size: 0x8, addend: 0x0, symName: __ZNSt3__135__uninitialized_allocator_copy_implB8ne190102INS_9allocatorINS_6vectorI23whisper_grammar_elementNS1_IS3_EEEEEEPS5_S7_S7_EET2_RT_T0_T1_S8_, symObjAddr: 0x38710, symBinAddr: 0x391D0, symSize: 0x100 }
  - { offset: 0x8DC2D, size: 0x8, addend: 0x0, symName: __ZNSt3__135__uninitialized_allocator_copy_implB8ne190102INS_9allocatorINS_6vectorIPK23whisper_grammar_elementNS1_IS5_EEEEEEPS7_S9_S9_EET2_RT_T0_T1_SA_, symObjAddr: 0x388D0, symBinAddr: 0x39390, symSize: 0x100 }
  - { offset: 0x8F68D, size: 0x8, addend: 0x0, symName: '__ZNSt3__17__sort4B8ne190102INS_17_ClassicAlgPolicyERZL11whisper_vadP15whisper_contextP13whisper_state19whisper_full_paramsPKfiRNS_6vectorIfNS_9allocatorIfEEEEE3$_0P16vad_time_mappingEEvT1_SI_SI_SI_T0_', symObjAddr: 0x3A660, symBinAddr: 0x3B120, symSize: 0xE0 }
  - { offset: 0x90ADA, size: 0x8, addend: 0x0, symName: '__ZNSt3__17__sort4B8ne190102INS_17_ClassicAlgPolicyERZ35whisper_lang_auto_detect_with_stateE3$_0P12whisper_pairIdiEEEvT1_S7_S7_S7_T0_', symObjAddr: 0x3DCB0, symBinAddr: 0x3E770, symSize: 0x170 }
  - { offset: 0x918A5, size: 0x8, addend: 0x0, symName: '__ZNSt3__114__thread_proxyB8ne190102INS_5tupleIJNS_10unique_ptrINS_15__thread_structENS_14default_deleteIS3_EEEEZ23whisper_full_with_stateE3$_0EEEEEPvS9_', symObjAddr: 0x3EB40, symBinAddr: 0x3F600, symSize: 0x80 }
  - { offset: 0x9243E, size: 0x8, addend: 0x0, symName: '__ZNSt3__17__sort3B8ne190102INS_17_ClassicAlgPolicyERZ23whisper_full_with_stateE3$_1PZ23whisper_full_with_stateE14beam_candidateEEjT1_S6_S6_T0_', symObjAddr: 0x412E0, symBinAddr: 0x41DA0, symSize: 0xF0 }
  - { offset: 0x925E2, size: 0x8, addend: 0x0, symName: __ZNSt3__19iter_swapB8ne190102IPZ23whisper_full_with_stateE14beam_candidateS2_EEvT_T0_, symObjAddr: 0x41960, symBinAddr: 0x42420, symSize: 0x240 }
  - { offset: 0x930DE, size: 0x8, addend: 0x0, symName: '__ZNSt3__124__sort5_maybe_branchlessB8ne190102INS_17_ClassicAlgPolicyERZ23whisper_full_with_stateE3$_1PZ23whisper_full_with_stateE14beam_candidateLi0EEEvT1_S6_S6_S6_S6_T0_', symObjAddr: 0x411D0, symBinAddr: 0x41C90, symSize: 0x110 }
  - { offset: 0x93301, size: 0x8, addend: 0x0, symName: '__ZNSt3__17__sort4B8ne190102INS_17_ClassicAlgPolicyERZ23whisper_full_with_stateE3$_1PZ23whisper_full_with_stateE14beam_candidateEEvT1_S6_S6_S6_T0_', symObjAddr: 0x41BA0, symBinAddr: 0x42660, symSize: 0xD0 }
  - { offset: 0x93586, size: 0x8, addend: 0x0, symName: '__ZNSt3__114__thread_proxyB8ne190102INS_5tupleIJNS_10unique_ptrINS_15__thread_structENS_14default_deleteIS3_EEEEZ23whisper_full_with_stateE3$_2EEEEEPvS9_', symObjAddr: 0x41C70, symBinAddr: 0x42730, symSize: 0x100 }
  - { offset: 0x93F36, size: 0x8, addend: 0x0, symName: __ZNSt3__114__thread_proxyB8ne190102INS_5tupleIJNS_10unique_ptrINS_15__thread_structENS_14default_deleteIS3_EEEEPFiP15whisper_contextP13whisper_state19whisper_full_paramsPKfiES8_SA_SB_SD_iEEEEEPvSH_, symObjAddr: 0x41EF0, symBinAddr: 0x429B0, symSize: 0xB0 }
  - { offset: 0x943CC, size: 0x8, addend: 0x0, symName: '__ZNSt3__114__thread_proxyB8ne190102INS_5tupleIJNS_10unique_ptrINS_15__thread_structENS_14default_deleteIS3_EEEEZ24whisper_bench_memcpy_strE3$_0iEEEEEPvS9_', symObjAddr: 0x41FF0, symBinAddr: 0x42AB0, symSize: 0x180 }
  - { offset: 0x98049, size: 0x8, addend: 0x0, symName: __ZSt28__throw_bad_array_new_lengthB8ne190102v, symObjAddr: 0x20340, symBinAddr: 0x20E00, symSize: 0x40 }
  - { offset: 0x98B13, size: 0x8, addend: 0x0, symName: __ZL15ASR_TENSOR_INFO, symObjAddr: 0x58DDC8, symBinAddr: 0x203338, symSize: 0x0 }
  - { offset: 0x9915C, size: 0x8, addend: 0x0, symName: __ZL14VAD_TENSOR_OPS, symObjAddr: 0x58DDE0, symBinAddr: 0x203350, symSize: 0x0 }
  - { offset: 0x995F8, size: 0x8, addend: 0x0, symName: __ZL16VAD_TENSOR_NAMES, symObjAddr: 0x58DDF8, symBinAddr: 0x203368, symSize: 0x0 }
  - { offset: 0x99A13, size: 0x8, addend: 0x0, symName: __ZL12g_model_name, symObjAddr: 0x58DE10, symBinAddr: 0x203380, symSize: 0x0 }
  - { offset: 0x9A02D, size: 0x8, addend: 0x0, symName: __ZL6g_lang, symObjAddr: 0x58DE28, symBinAddr: 0x203398, symSize: 0x0 }
  - { offset: 0x9A476, size: 0x8, addend: 0x0, symName: __ZL8g_aheads, symObjAddr: 0x58DE40, symBinAddr: 0x2033B0, symSize: 0x0 }
  - { offset: 0x9A970, size: 0x8, addend: 0x0, symName: __ZN12_GLOBAL__N_112global_cacheE, symObjAddr: 0x58DE58, symBinAddr: 0x2033C8, symSize: 0x0 }
  - { offset: 0x9AA18, size: 0x8, addend: 0x0, symName: _whisper_print_system_info, symObjAddr: 0x9D70, symBinAddr: 0xA830, symSize: 0x380 }
  - { offset: 0x9AA40, size: 0x8, addend: 0x0, symName: __ZZ25whisper_print_system_infoE1s, symObjAddr: 0x58F118, symBinAddr: 0x204688, symSize: 0x0 }
  - { offset: 0x9B7CB, size: 0x8, addend: 0x0, symName: __ZL17non_speech_tokens, symObjAddr: 0x58F138, symBinAddr: 0x2046A8, symSize: 0x0 }
  - { offset: 0x9B9CE, size: 0x8, addend: 0x0, symName: _whisper_bench_memcpy_str, symObjAddr: 0x1EB40, symBinAddr: 0x1F600, symSize: 0xD10 }
  - { offset: 0x9B9F6, size: 0x8, addend: 0x0, symName: __ZZ24whisper_bench_memcpy_strE1s, symObjAddr: 0x58F150, symBinAddr: 0x2046C0, symSize: 0x0 }
  - { offset: 0x9C9FD, size: 0x8, addend: 0x0, symName: _whisper_bench_ggml_mul_mat_str, symObjAddr: 0x1F870, symBinAddr: 0x20330, symSize: 0x7F0 }
  - { offset: 0x9CA25, size: 0x8, addend: 0x0, symName: __ZZ30whisper_bench_ggml_mul_mat_strE1s, symObjAddr: 0x58F170, symBinAddr: 0x2046E0, symSize: 0x0 }
  - { offset: 0x9DBBF, size: 0x8, addend: 0x0, symName: __ZL16g_aheads_tiny_en, symObjAddr: 0x4B7B0, symBinAddr: 0x156D90, symSize: 0x0 }
  - { offset: 0x9DBE8, size: 0x8, addend: 0x0, symName: __ZL13g_aheads_tiny, symObjAddr: 0x4B7F0, symBinAddr: 0x156DD0, symSize: 0x0 }
  - { offset: 0x9DC11, size: 0x8, addend: 0x0, symName: __ZL16g_aheads_base_en, symObjAddr: 0x4B820, symBinAddr: 0x156E00, symSize: 0x0 }
  - { offset: 0x9DC3A, size: 0x8, addend: 0x0, symName: __ZL13g_aheads_base, symObjAddr: 0x4B850, symBinAddr: 0x156E30, symSize: 0x0 }
  - { offset: 0x9DC55, size: 0x8, addend: 0x0, symName: __ZL17g_aheads_small_en, symObjAddr: 0x4B890, symBinAddr: 0x156E70, symSize: 0x0 }
  - { offset: 0x9DC7E, size: 0x8, addend: 0x0, symName: __ZL14g_aheads_small, symObjAddr: 0x4B930, symBinAddr: 0x156F10, symSize: 0x0 }
  - { offset: 0x9DCA7, size: 0x8, addend: 0x0, symName: __ZL18g_aheads_medium_en, symObjAddr: 0x4B980, symBinAddr: 0x156F60, symSize: 0x0 }
  - { offset: 0x9DCD0, size: 0x8, addend: 0x0, symName: __ZL15g_aheads_medium, symObjAddr: 0x4BA10, symBinAddr: 0x156FF0, symSize: 0x0 }
  - { offset: 0x9DCEB, size: 0x8, addend: 0x0, symName: __ZL17g_aheads_large_v1, symObjAddr: 0x4BA40, symBinAddr: 0x157020, symSize: 0x0 }
  - { offset: 0x9DD14, size: 0x8, addend: 0x0, symName: __ZL17g_aheads_large_v2, symObjAddr: 0x4BA90, symBinAddr: 0x157070, symSize: 0x0 }
  - { offset: 0x9DD3D, size: 0x8, addend: 0x0, symName: __ZL17g_aheads_large_v3, symObjAddr: 0x4BB50, symBinAddr: 0x157130, symSize: 0x0 }
  - { offset: 0x9DD58, size: 0x8, addend: 0x0, symName: __ZL23g_aheads_large_v3_turbo, symObjAddr: 0x4BBA0, symBinAddr: 0x157180, symSize: 0x0 }
  - { offset: 0x9DD71, size: 0x8, addend: 0x0, symName: __ZL27whisper_build_graph_encoderR15whisper_contextR13whisper_state, symObjAddr: 0x245D0, symBinAddr: 0x25090, symSize: 0x640 }
  - { offset: 0x9EC04, size: 0x8, addend: 0x0, symName: __ZL11decode_utf8PKc20whisper_partial_utf8, symObjAddr: 0x369C0, symBinAddr: 0x37480, symSize: 0x4B0 }
  - { offset: 0x9EC30, size: 0x8, addend: 0x0, symName: __ZZL11decode_utf8PKc20whisper_partial_utf8E6lookup, symObjAddr: 0x4C180, symBinAddr: 0x157760, symSize: 0x0 }
  - { offset: 0xA0154, size: 0x8, addend: 0x0, symName: __ZL7g_state.0, symObjAddr: 0x4C3B0, symBinAddr: 0x182280, symSize: 0x0 }
  - { offset: 0xA015F, size: 0x8, addend: 0x0, symName: __ZL7g_state.1, symObjAddr: 0x58F190, symBinAddr: 0x204700, symSize: 0x0 }
  - { offset: 0xA01F5, size: 0x8, addend: 0x0, symName: _whisper_vad_segments_from_probs, symObjAddr: 0xD8A0, symBinAddr: 0xE360, symSize: 0xCB0 }
  - { offset: 0xA39C4, size: 0x8, addend: 0x0, symName: _whisper_init_from_buffer_with_params_no_state, symObjAddr: 0x5490, symBinAddr: 0x5F50, symSize: 0x90 }
  - { offset: 0xA87ED, size: 0x8, addend: 0x0, symName: _whisper_full_with_state, symObjAddr: 0xEAB0, symBinAddr: 0xF570, symSize: 0x8920 }
  - { offset: 0xC2E53, size: 0x8, addend: 0x0, symName: _whisper_init_state, symObjAddr: 0x140, symBinAddr: 0xC00, symSize: 0x1A40 }
  - { offset: 0xC9352, size: 0x8, addend: 0x0, symName: __ZNSt3__13mapI10asr_systemNS0_I10asr_tensorPKcNS_4lessIS2_EENS_9allocatorINS_4pairIKS2_S4_EEEEEENS5_IS1_EENS7_INS8_IKS1_SC_EEEEED1B8ne190102Ev, symObjAddr: 0x0, symBinAddr: 0xAC0, symSize: 0x10 }
  - { offset: 0xC940E, size: 0x8, addend: 0x0, symName: __ZNSt3__16__treeINS_12__value_typeI10asr_systemNS_3mapI10asr_tensorPKcNS_4lessIS4_EENS_9allocatorINS_4pairIKS4_S6_EEEEEEEENS_19__map_value_compareIS2_SF_NS7_IS2_EELb1EEENS9_ISF_EEE7destroyEPNS_11__tree_nodeISF_PvEE, symObjAddr: 0x3AF90, symBinAddr: 0x3BA50, symSize: 0x50 }
  - { offset: 0xC96FD, size: 0x8, addend: 0x0, symName: __ZNSt3__13mapI10asr_tensor7ggml_opNS_4lessIS1_EENS_9allocatorINS_4pairIKS1_S2_EEEEED1B8ne190102Ev, symObjAddr: 0x10, symBinAddr: 0xAD0, symSize: 0x10 }
  - { offset: 0xC97B9, size: 0x8, addend: 0x0, symName: __ZNSt3__16__treeINS_12__value_typeI10asr_tensor7ggml_opEENS_19__map_value_compareIS2_S4_NS_4lessIS2_EELb1EEENS_9allocatorIS4_EEE7destroyEPNS_11__tree_nodeIS4_PvEE, symObjAddr: 0x3B150, symBinAddr: 0x3BC10, symSize: 0x40 }
  - { offset: 0xC9978, size: 0x8, addend: 0x0, symName: __ZNSt3__13mapI10vad_tensor7ggml_opNS_4lessIS1_EENS_9allocatorINS_4pairIKS1_S2_EEEEED1B8ne190102Ev, symObjAddr: 0x20, symBinAddr: 0xAE0, symSize: 0x10 }
  - { offset: 0xC9A34, size: 0x8, addend: 0x0, symName: __ZNSt3__16__treeINS_12__value_typeI10vad_tensor7ggml_opEENS_19__map_value_compareIS2_S4_NS_4lessIS2_EELb1EEENS_9allocatorIS4_EEE7destroyEPNS_11__tree_nodeIS4_PvEE, symObjAddr: 0x3B300, symBinAddr: 0x3BDC0, symSize: 0x40 }
  - { offset: 0xC9BF3, size: 0x8, addend: 0x0, symName: __ZNSt3__13mapI10vad_tensorPKcNS_4lessIS1_EENS_9allocatorINS_4pairIKS1_S3_EEEEED1B8ne190102Ev, symObjAddr: 0x30, symBinAddr: 0xAF0, symSize: 0x10 }
  - { offset: 0xC9CAF, size: 0x8, addend: 0x0, symName: __ZNSt3__16__treeINS_12__value_typeI10vad_tensorPKcEENS_19__map_value_compareIS2_S5_NS_4lessIS2_EELb1EEENS_9allocatorIS5_EEE7destroyEPNS_11__tree_nodeIS5_PvEE, symObjAddr: 0x3B4B0, symBinAddr: 0x3BF70, symSize: 0x40 }
  - { offset: 0xC9E6E, size: 0x8, addend: 0x0, symName: __ZNSt3__13mapI7e_modelNS_12basic_stringIcNS_11char_traitsIcEENS_9allocatorIcEEEENS_4lessIS1_EENS5_INS_4pairIKS1_S7_EEEEED1B8ne190102Ev, symObjAddr: 0x40, symBinAddr: 0xB00, symSize: 0x10 }
  - { offset: 0xC9F2A, size: 0x8, addend: 0x0, symName: __ZNSt3__16__treeINS_12__value_typeI7e_modelNS_12basic_stringIcNS_11char_traitsIcEENS_9allocatorIcEEEEEENS_19__map_value_compareIS2_S9_NS_4lessIS2_EELb1EEENS6_IS9_EEE7destroyEPNS_11__tree_nodeIS9_PvEE, symObjAddr: 0x3B790, symBinAddr: 0x3C250, symSize: 0x50 }
  - { offset: 0xCA40D, size: 0x8, addend: 0x0, symName: __ZNSt3__112basic_stringIcNS_11char_traitsIcEENS_9allocatorIcEEEC1B8ne190102ILi0EEEPKc, symObjAddr: 0x50, symBinAddr: 0xB10, symSize: 0x90 }
  - { offset: 0xCA72A, size: 0x8, addend: 0x0, symName: __ZNKSt3__112basic_stringIcNS_11char_traitsIcEENS_9allocatorIcEEE20__throw_length_errorB8ne190102Ev, symObjAddr: 0x24460, symBinAddr: 0x24F20, symSize: 0x10 }
  - { offset: 0xCA754, size: 0x8, addend: 0x0, symName: __ZL24whisper_build_graph_convR15whisper_contextR13whisper_state, symObjAddr: 0x24470, symBinAddr: 0x24F30, symSize: 0x160 }
  - { offset: 0xCA871, size: 0x8, addend: 0x0, symName: __ZNSt3__14pairIKNS_12basic_stringIcNS_11char_traitsIcEENS_9allocatorIcEEEENS0_IiS6_EEED1Ev, symObjAddr: 0xE0, symBinAddr: 0xBA0, symSize: 0x40 }
  - { offset: 0xCABA8, size: 0x8, addend: 0x0, symName: __ZNSt3__13mapINS_12basic_stringIcNS_11char_traitsIcEENS_9allocatorIcEEEENS_4pairIiS6_EENS_4lessIS6_EENS4_INS7_IKS6_S8_EEEEED1B8ne190102Ev, symObjAddr: 0x120, symBinAddr: 0xBE0, symSize: 0x10 }
  - { offset: 0xCAC64, size: 0x8, addend: 0x0, symName: __ZNSt3__16__treeINS_12__value_typeINS_12basic_stringIcNS_11char_traitsIcEENS_9allocatorIcEEEENS_4pairIiS7_EEEENS_19__map_value_compareIS7_SA_NS_4lessIS7_EELb1EEENS5_ISA_EEE7destroyEPNS_11__tree_nodeISA_PvEE, symObjAddr: 0x3BEB0, symBinAddr: 0x3C970, symSize: 0x60 }
  - { offset: 0xCB15B, size: 0x8, addend: 0x0, symName: __ZNSt3__13mapI30whisper_alignment_heads_preset14whisper_aheadsNS_4lessIS1_EENS_9allocatorINS_4pairIKS1_S2_EEEEED1B8ne190102Ev, symObjAddr: 0x130, symBinAddr: 0xBF0, symSize: 0x10 }
  - { offset: 0xCB217, size: 0x8, addend: 0x0, symName: __ZNSt3__16__treeINS_12__value_typeI30whisper_alignment_heads_preset14whisper_aheadsEENS_19__map_value_compareIS2_S4_NS_4lessIS2_EELb1EEENS_9allocatorIS4_EEE7destroyEPNS_11__tree_nodeIS4_PvEE, symObjAddr: 0x3C080, symBinAddr: 0x3CB40, symSize: 0x40 }
  - { offset: 0xCD4BB, size: 0x8, addend: 0x0, symName: __ZN13whisper_stateC2Ev, symObjAddr: 0x20540, symBinAddr: 0x21000, symSize: 0x730 }
  - { offset: 0xCDA6D, size: 0x8, addend: 0x0, symName: __ZL20whisper_backend_initRK22whisper_context_params, symObjAddr: 0x1B80, symBinAddr: 0x2640, symSize: 0x500 }
  - { offset: 0xCEB3A, size: 0x8, addend: 0x0, symName: __ZL21whisper_kv_cache_initR16whisper_kv_cacheP12ggml_backend9ggml_typexxi, symObjAddr: 0x2350, symBinAddr: 0x2E10, symSize: 0x2A0 }
  - { offset: 0xCF549, size: 0x8, addend: 0x0, symName: __ZL20whisper_log_internal14ggml_log_levelPKcz, symObjAddr: 0x2080, symBinAddr: 0x2B40, symSize: 0x150 }
  - { offset: 0xCF665, size: 0x8, addend: 0x0, symName: _whisper_free_state, symObjAddr: 0x21D0, symBinAddr: 0x2C90, symSize: 0x180 }
  - { offset: 0xCF961, size: 0x8, addend: 0x0, symName: __ZL28get_alignment_heads_by_layerRK22whisper_context_paramsiii, symObjAddr: 0x210A0, symBinAddr: 0x21B60, symSize: 0x350 }
  - { offset: 0xD0527, size: 0x8, addend: 0x0, symName: __ZNSt3__16vectorIfNS_9allocatorIfEEE8__appendEm, symObjAddr: 0x3C0C0, symBinAddr: 0x3CB80, symSize: 0x150 }
  - { offset: 0xD09CB, size: 0x8, addend: 0x0, symName: __ZL19aheads_masks_nbytesR20whisper_aheads_masks, symObjAddr: 0x25F0, symBinAddr: 0x30B0, symSize: 0x70 }
  - { offset: 0xD0A66, size: 0x8, addend: 0x0, symName: __ZL24whisper_sched_graph_initR13whisper_schedNSt3__16vectorIP12ggml_backendNS1_9allocatorIS4_EEEEONS1_8functionIFP11ggml_cgraphvEEE, symObjAddr: 0x2660, symBinAddr: 0x3120, symSize: 0x1A0 }
  - { offset: 0xD1103, size: 0x8, addend: 0x0, symName: __ZL18whisper_sched_sizeR13whisper_sched, symObjAddr: 0x2890, symBinAddr: 0x3350, symSize: 0x70 }
  - { offset: 0xD11AC, size: 0x8, addend: 0x0, symName: __ZNSt3__16vectorIP12ggml_backendNS_9allocatorIS2_EEEC1ERKS5_, symObjAddr: 0x2800, symBinAddr: 0x32C0, symSize: 0x90 }
  - { offset: 0xD1630, size: 0x8, addend: 0x0, symName: __ZNKSt3__16vectorIP11ggml_tensorNS_9allocatorIS2_EEE20__throw_length_errorB8ne190102Ev, symObjAddr: 0x21480, symBinAddr: 0x21F40, symSize: 0x10 }
  - { offset: 0xD165A, size: 0x8, addend: 0x0, symName: __ZNSt3__125__throw_bad_function_callB8ne190102Ev, symObjAddr: 0x21490, symBinAddr: 0x21F50, symSize: 0x40 }
  - { offset: 0xD1665, size: 0x8, addend: 0x0, symName: __ZNKSt3__16vectorIP12ggml_backendNS_9allocatorIS2_EEE20__throw_length_errorB8ne190102Ev, symObjAddr: 0x20DE0, symBinAddr: 0x218A0, symSize: 0x10 }
  - { offset: 0xD168F, size: 0x8, addend: 0x0, symName: __ZNSt3__120__throw_length_errorB8ne190102EPKc, symObjAddr: 0x20DF0, symBinAddr: 0x218B0, symSize: 0x50 }
  - { offset: 0xD169A, size: 0x8, addend: 0x0, symName: __ZNKSt3__16vectorIfNS_9allocatorIfEEE20__throw_length_errorB8ne190102Ev, symObjAddr: 0x3AB80, symBinAddr: 0x3B640, symSize: 0x10 }
  - { offset: 0xD16C4, size: 0x8, addend: 0x0, symName: __ZNSt3__13mapI10asr_tensorPKcNS_4lessIS1_EENS_9allocatorINS_4pairIKS1_S3_EEEEEC2B8ne190102ESt16initializer_listIS9_ERKS5_, symObjAddr: 0x3AB90, symBinAddr: 0x3B650, symSize: 0x170 }
  - { offset: 0xD16CF, size: 0x8, addend: 0x0, symName: __ZNKSt3__16vectorI18whisper_token_dataNS_9allocatorIS1_EEE20__throw_length_errorB8ne190102Ev, symObjAddr: 0x37E70, symBinAddr: 0x38930, symSize: 0x10 }
  - { offset: 0xD16F9, size: 0x8, addend: 0x0, symName: __ZNSt3__121discrete_distributionIiE10param_type6__initEv, symObjAddr: 0x37E80, symBinAddr: 0x38940, symSize: 0x1E0 }
  - { offset: 0xD1704, size: 0x8, addend: 0x0, symName: __ZNKSt3__16vectorI12whisper_pairIdiENS_9allocatorIS2_EEE20__throw_length_errorB8ne190102Ev, symObjAddr: 0x38470, symBinAddr: 0x38F30, symSize: 0x10 }
  - { offset: 0xD172E, size: 0x8, addend: 0x0, symName: __ZNKSt3__16vectorIZ23whisper_full_with_stateE14beam_candidateNS_9allocatorIS1_EEE20__throw_length_errorB8ne190102Ev, symObjAddr: 0x38480, symBinAddr: 0x38F40, symSize: 0x10 }
  - { offset: 0xD1C6A, size: 0x8, addend: 0x0, symName: _whisper_vad_free, symObjAddr: 0x5B30, symBinAddr: 0x65F0, symSize: 0x100 }
  - { offset: 0xD1F79, size: 0x8, addend: 0x0, symName: __ZN13whisper_stateD2Ev, symObjAddr: 0x228A0, symBinAddr: 0x23360, symSize: 0x3B0 }
  - { offset: 0xD5111, size: 0x8, addend: 0x0, symName: __ZNSt3__16__treeIiNS_4lessIiEENS_9allocatorIiEEE7destroyEPNS_11__tree_nodeIiPvEE, symObjAddr: 0x20DA0, symBinAddr: 0x21860, symSize: 0x40 }
  - { offset: 0xD525A, size: 0x8, addend: 0x0, symName: __ZNSt3__16vectorI15whisper_kv_cellNS_9allocatorIS1_EEE8__appendEm, symObjAddr: 0x20E80, symBinAddr: 0x21940, symSize: 0x210 }
  - { offset: 0xD5C43, size: 0x8, addend: 0x0, symName: __ZNKSt3__16vectorIhNS_9allocatorIhEEE20__throw_length_errorB8ne190102Ev, symObjAddr: 0x20E70, symBinAddr: 0x21930, symSize: 0x10 }
  - { offset: 0xD5C6D, size: 0x8, addend: 0x0, symName: __ZNSt3__16vectorI15whisper_kv_cellNS_9allocatorIS1_EEE8__appendEm, symObjAddr: 0x20E80, symBinAddr: 0x21940, symSize: 0x210 }
  - { offset: 0xD5D15, size: 0x8, addend: 0x0, symName: _whisper_ctx_init_openvino_encoder_with_state, symObjAddr: 0x2900, symBinAddr: 0x33C0, symSize: 0x10 }
  - { offset: 0xD5D7C, size: 0x8, addend: 0x0, symName: _whisper_ctx_init_openvino_encoder, symObjAddr: 0x2910, symBinAddr: 0x33D0, symSize: 0x10 }
  - { offset: 0xD5DD4, size: 0x8, addend: 0x0, symName: _whisper_context_default_params, symObjAddr: 0x2920, symBinAddr: 0x33E0, symSize: 0x30 }
  - { offset: 0xD5EB5, size: 0x8, addend: 0x0, symName: _whisper_init_from_file_with_params_no_state, symObjAddr: 0x2950, symBinAddr: 0x3410, symSize: 0x190 }
  - { offset: 0xD6105, size: 0x8, addend: 0x0, symName: __ZNSt3__114basic_ifstreamIcNS_11char_traitsIcEEEC1EPKcj, symObjAddr: 0x2AE0, symBinAddr: 0x35A0, symSize: 0x120 }
  - { offset: 0xD6246, size: 0x8, addend: 0x0, symName: _whisper_init_with_params_no_state, symObjAddr: 0x2C00, symBinAddr: 0x36C0, symSize: 0x2840 }
  - { offset: 0xDC428, size: 0x8, addend: 0x0, symName: __ZNSt3__114basic_ifstreamIcNS_11char_traitsIcEEED1Ev, symObjAddr: 0x5440, symBinAddr: 0x5F00, symSize: 0x50 }
  - { offset: 0xDE703, size: 0x8, addend: 0x0, symName: __ZNSt3__16__treeINS_12__value_typeINS_12basic_stringIcNS_11char_traitsIcEENS_9allocatorIcEEEEiEENS_19__map_value_compareIS7_S8_NS_4lessIS7_EELb1EEENS5_IS8_EEE25__emplace_unique_key_argsIS7_JRKNS_21piecewise_construct_tENS_5tupleIJRKS7_EEENSJ_IJEEEEEENS_4pairINS_15__tree_iteratorIS8_PNS_11__tree_nodeIS8_PvEElEEbEERKT_DpOT0_, symObjAddr: 0x21E70, symBinAddr: 0x22930, symSize: 0x1C0 }
  - { offset: 0xDEEDF, size: 0x8, addend: 0x0, symName: _whisper_lang_str, symObjAddr: 0x9130, symBinAddr: 0x9BF0, symSize: 0xA0 }
  - { offset: 0xDF0EF, size: 0x8, addend: 0x0, symName: __ZL14make_buft_listR22whisper_context_params, symObjAddr: 0xC0F0, symBinAddr: 0xCBB0, symSize: 0x480 }
  - { offset: 0xE02CC, size: 0x8, addend: 0x0, symName: __ZNSt3__16vectorI21whisper_layer_encoderNS_9allocatorIS1_EEE8__appendEm, symObjAddr: 0x22080, symBinAddr: 0x22B40, symSize: 0x190 }
  - { offset: 0xE070D, size: 0x8, addend: 0x0, symName: __ZNSt3__16vectorI21whisper_layer_decoderNS_9allocatorIS1_EEE8__appendEm, symObjAddr: 0x22220, symBinAddr: 0x22CE0, symSize: 0x1B0 }
  - { offset: 0xE0B4E, size: 0x8, addend: 0x0, symName: '__ZZL18whisper_model_loadP20whisper_model_loaderR15whisper_contextENK3$_1clE10asr_tensor10asr_systemP11ggml_tensori', symObjAddr: 0x215F0, symBinAddr: 0x220B0, symSize: 0x870 }
  - { offset: 0xE24DD, size: 0x8, addend: 0x0, symName: __ZNSt3__16__treeINS_12__value_typeINS_12basic_stringIcNS_11char_traitsIcEENS_9allocatorIcEEEEP11ggml_tensorEENS_19__map_value_compareIS7_SA_NS_4lessIS7_EELb1EEENS5_ISA_EEE4findIS7_EENS_15__tree_iteratorISA_PNS_11__tree_nodeISA_PvEElEERKT_, symObjAddr: 0x3C3F0, symBinAddr: 0x3CEB0, symSize: 0x110 }
  - { offset: 0xE2883, size: 0x8, addend: 0x0, symName: __ZNSt3__16__treeINS_12__value_typeINS_12basic_stringIcNS_11char_traitsIcEENS_9allocatorIcEEEEP11ggml_tensorEENS_19__map_value_compareIS7_SA_NS_4lessIS7_EELb1EEENS5_ISA_EEE25__emplace_unique_key_argsIS7_JRKNS_21piecewise_construct_tENS_5tupleIJOS7_EEENSL_IJEEEEEENS_4pairINS_15__tree_iteratorISA_PNS_11__tree_nodeISA_PvEElEEbEERKT_DpOT0_, symObjAddr: 0x3C250, symBinAddr: 0x3CD10, symSize: 0x190 }
  - { offset: 0xE2F34, size: 0x8, addend: 0x0, symName: __ZNSt3__16__treeINS_12__value_typeIP24ggml_backend_buffer_typeP12ggml_contextEENS_19__map_value_compareIS3_S6_NS_4lessIS3_EELb1EEENS_9allocatorIS6_EEE7destroyEPNS_11__tree_nodeIS6_PvEE, symObjAddr: 0x3C210, symBinAddr: 0x3CCD0, symSize: 0x40 }
  - { offset: 0xE307F, size: 0x8, addend: 0x0, symName: __ZN15whisper_contextD2Ev, symObjAddr: 0x226D0, symBinAddr: 0x23190, symSize: 0xE0 }
  - { offset: 0xE3B98, size: 0x8, addend: 0x0, symName: __ZNKSt3__16vectorIcNS_9allocatorIcEEE20__throw_length_errorB8ne190102Ev, symObjAddr: 0x21E60, symBinAddr: 0x22920, symSize: 0x10 }
  - { offset: 0xE3BC2, size: 0x8, addend: 0x0, symName: __ZNSt3__16__treeINS_12__value_typeINS_12basic_stringIcNS_11char_traitsIcEENS_9allocatorIcEEEEiEENS_19__map_value_compareIS7_S8_NS_4lessIS7_EELb1EEENS5_IS8_EEE25__emplace_unique_key_argsIS7_JRKNS_21piecewise_construct_tENS_5tupleIJRKS7_EEENSJ_IJEEEEEENS_4pairINS_15__tree_iteratorIS8_PNS_11__tree_nodeIS8_PvEElEEbEERKT_DpOT0_, symObjAddr: 0x21E70, symBinAddr: 0x22930, symSize: 0x1C0 }
  - { offset: 0xE3BCD, size: 0x8, addend: 0x0, symName: __ZNKSt3__16vectorIP19ggml_backend_bufferNS_9allocatorIS2_EEE20__throw_length_errorB8ne190102Ev, symObjAddr: 0x3C3E0, symBinAddr: 0x3CEA0, symSize: 0x10 }
  - { offset: 0xE3BF7, size: 0x8, addend: 0x0, symName: __ZNSt3__16__treeINS_12__value_typeINS_12basic_stringIcNS_11char_traitsIcEENS_9allocatorIcEEEEP11ggml_tensorEENS_19__map_value_compareIS7_SA_NS_4lessIS7_EELb1EEENS5_ISA_EEE4findIS7_EENS_15__tree_iteratorISA_PNS_11__tree_nodeISA_PvEElEERKT_, symObjAddr: 0x3C3F0, symBinAddr: 0x3CEB0, symSize: 0x110 }
  - { offset: 0xE3CD3, size: 0x8, addend: 0x0, symName: _whisper_init_from_file_with_params, symObjAddr: 0x5520, symBinAddr: 0x5FE0, symSize: 0xD0 }
  - { offset: 0xE3F3E, size: 0x8, addend: 0x0, symName: _whisper_free, symObjAddr: 0x55F0, symBinAddr: 0x60B0, symSize: 0xA0 }
  - { offset: 0xE420D, size: 0x8, addend: 0x0, symName: _whisper_init_from_buffer_with_params, symObjAddr: 0x5690, symBinAddr: 0x6150, symSize: 0x130 }
  - { offset: 0xE44DC, size: 0x8, addend: 0x0, symName: _whisper_init_with_params, symObjAddr: 0x57C0, symBinAddr: 0x6280, symSize: 0xD0 }
  - { offset: 0xE4763, size: 0x8, addend: 0x0, symName: _whisper_init_from_file, symObjAddr: 0x5890, symBinAddr: 0x6350, symSize: 0x60 }
  - { offset: 0xE47C7, size: 0x8, addend: 0x0, symName: _whisper_init_from_buffer, symObjAddr: 0x58F0, symBinAddr: 0x63B0, symSize: 0x60 }
  - { offset: 0xE4844, size: 0x8, addend: 0x0, symName: _whisper_init, symObjAddr: 0x5950, symBinAddr: 0x6410, symSize: 0x60 }
  - { offset: 0xE48A8, size: 0x8, addend: 0x0, symName: _whisper_init_from_file_no_state, symObjAddr: 0x59B0, symBinAddr: 0x6470, symSize: 0x60 }
  - { offset: 0xE490C, size: 0x8, addend: 0x0, symName: _whisper_init_from_buffer_no_state, symObjAddr: 0x5A10, symBinAddr: 0x64D0, symSize: 0xC0 }
  - { offset: 0xE49DF, size: 0x8, addend: 0x0, symName: _whisper_init_no_state, symObjAddr: 0x5AD0, symBinAddr: 0x6590, symSize: 0x60 }
  - { offset: 0xE4A66, size: 0x8, addend: 0x0, symName: __ZN19whisper_vad_contextD2Ev, symObjAddr: 0x32030, symBinAddr: 0x32AF0, symSize: 0x110 }
  - { offset: 0xE574E, size: 0x8, addend: 0x0, symName: _whisper_free_context_params, symObjAddr: 0x5C30, symBinAddr: 0x66F0, symSize: 0x20 }
  - { offset: 0xE5775, size: 0x8, addend: 0x0, symName: _whisper_free_params, symObjAddr: 0x5C50, symBinAddr: 0x6710, symSize: 0x20 }
  - { offset: 0xE5EDF, size: 0x8, addend: 0x0, symName: _whisper_pcm_to_mel_with_state, symObjAddr: 0x5C70, symBinAddr: 0x6730, symSize: 0xA90 }
  - { offset: 0xE6CE5, size: 0x8, addend: 0x0, symName: __ZNSt3__16threadC2IRFviPKfRKNS_6vectorIfNS_9allocatorIfEEEEiiiiRK15whisper_filtersR11whisper_melEJiRS3_NS_17reference_wrapperIS8_EExRKiSL_SL_NSI_ISB_EENSI_ISD_EEELi0EEEOT_DpOT0_, symObjAddr: 0x24200, symBinAddr: 0x24CC0, symSize: 0x130 }
  - { offset: 0xE74F3, size: 0x8, addend: 0x0, symName: __ZL33log_mel_spectrogram_worker_threadiPKfRKNSt3__16vectorIfNS1_9allocatorIfEEEEiiiiRK15whisper_filtersR11whisper_mel, symObjAddr: 0x22C50, symBinAddr: 0x23710, symSize: 0xA40 }
  - { offset: 0xE7EB0, size: 0x8, addend: 0x0, symName: __ZNKSt3__16vectorINS_6threadENS_9allocatorIS1_EEE20__throw_length_errorB8ne190102Ev, symObjAddr: 0x3C570, symBinAddr: 0x3D030, symSize: 0x10 }
  - { offset: 0xE7EDA, size: 0x8, addend: 0x0, symName: __ZNKSt3__16vectorIiNS_9allocatorIiEEE20__throw_length_errorB8ne190102Ev, symObjAddr: 0x3C580, symBinAddr: 0x3D040, symSize: 0x10 }
  - { offset: 0xE7EE5, size: 0x8, addend: 0x0, symName: __ZNSt3__128__exception_guard_exceptionsINS_6vectorINS_6threadENS_9allocatorIS2_EEE16__destroy_vectorEED1B8ne190102Ev, symObjAddr: 0x3C500, symBinAddr: 0x3CFC0, symSize: 0x70 }
  - { offset: 0xE8089, size: 0x8, addend: 0x0, symName: __ZNSt3__16vectorINS_6threadENS_9allocatorIS1_EEED1B8ne190102Ev, symObjAddr: 0x1B1F0, symBinAddr: 0x1BCB0, symSize: 0x70 }
  - { offset: 0xE821D, size: 0x8, addend: 0x0, symName: _whisper_pcm_to_mel, symObjAddr: 0x6700, symBinAddr: 0x71C0, symSize: 0x20 }
  - { offset: 0xE82AC, size: 0x8, addend: 0x0, symName: _whisper_set_mel_with_state, symObjAddr: 0x6720, symBinAddr: 0x71E0, symSize: 0xC0 }
  - { offset: 0xE83F8, size: 0x8, addend: 0x0, symName: _whisper_set_mel, symObjAddr: 0x67E0, symBinAddr: 0x72A0, symSize: 0xC0 }
  - { offset: 0xE855B, size: 0x8, addend: 0x0, symName: _whisper_encode_with_state, symObjAddr: 0x68A0, symBinAddr: 0x7360, symSize: 0x40 }
  - { offset: 0xE85E8, size: 0x8, addend: 0x0, symName: __ZL23whisper_encode_internalR15whisper_contextR13whisper_stateiiPFbPvES3_, symObjAddr: 0x68E0, symBinAddr: 0x73A0, symSize: 0x740 }
  - { offset: 0xE8AE0, size: 0x8, addend: 0x0, symName: __ZL24whisper_build_graph_convR15whisper_contextR13whisper_state, symObjAddr: 0x24470, symBinAddr: 0x24F30, symSize: 0x160 }
  - { offset: 0xE8D7E, size: 0x8, addend: 0x0, symName: __ZL25ggml_graph_compute_helperP18ggml_backend_schedP11ggml_cgraphib, symObjAddr: 0xD730, symBinAddr: 0xE1F0, symSize: 0xE0 }
  - { offset: 0xE8F3F, size: 0x8, addend: 0x0, symName: __ZL25whisper_build_graph_crossR15whisper_contextR13whisper_state, symObjAddr: 0x24C10, symBinAddr: 0x256D0, symSize: 0x380 }
  - { offset: 0xE93E3, size: 0x8, addend: 0x0, symName: _whisper_encode, symObjAddr: 0x7020, symBinAddr: 0x7AE0, symSize: 0x50 }
  - { offset: 0xE94DB, size: 0x8, addend: 0x0, symName: _whisper_decode_with_state, symObjAddr: 0x7070, symBinAddr: 0x7B30, symSize: 0x160 }
  - { offset: 0xE960F, size: 0x8, addend: 0x0, symName: __ZL23whisper_kv_cache_seq_rmR16whisper_kv_cacheiii, symObjAddr: 0x71D0, symBinAddr: 0x7C90, symSize: 0x230 }
  - { offset: 0xE9BE4, size: 0x8, addend: 0x0, symName: __ZL23whisper_decode_internalR15whisper_contextR13whisper_stateRK13whisper_batchibPFbPvES6_, symObjAddr: 0x7400, symBinAddr: 0x7EC0, symSize: 0x860 }
  - { offset: 0xEB1C4, size: 0x8, addend: 0x0, symName: __ZL27whisper_build_graph_decoderR15whisper_contextR13whisper_stateRK13whisper_batchbb, symObjAddr: 0x25310, symBinAddr: 0x25DD0, symSize: 0xE20 }
  - { offset: 0xEC542, size: 0x8, addend: 0x0, symName: _whisper_decode, symObjAddr: 0x7C60, symBinAddr: 0x8720, symSize: 0x40 }
  - { offset: 0xEDB41, size: 0x8, addend: 0x0, symName: _whisper_tokenize, symObjAddr: 0x7CA0, symBinAddr: 0x8760, symSize: 0xF30 }
  - { offset: 0xF1C4B, size: 0x8, addend: 0x0, symName: __ZNSt3__112basic_stringIcNS_11char_traitsIcEENS_9allocatorIcEEE25__init_copy_ctor_externalEPKcm, symObjAddr: 0x3B7E0, symBinAddr: 0x3C2A0, symSize: 0x80 }
  - { offset: 0xF1EAF, size: 0x8, addend: 0x0, symName: __ZNSt3__111basic_regexIcNS_12regex_traitsIcEEEC2B8ne190102INS_11char_traitsIcEENS_9allocatorIcEEEERKNS_12basic_stringIcT_T0_EENS_15regex_constants18syntax_option_typeE, symObjAddr: 0x26180, symBinAddr: 0x26C40, symSize: 0xD0 }
  - { offset: 0xF20D1, size: 0x8, addend: 0x0, symName: __ZNKSt3__111basic_regexIcNS_12regex_traitsIcEEE8__searchINS_9allocatorINS_9sub_matchIPKcEEEEEEbS8_S8_RNS_13match_resultsIS8_T_EENS_15regex_constants15match_flag_typeE, symObjAddr: 0x2EFC0, symBinAddr: 0x2FA80, symSize: 0x340 }
  - { offset: 0xF26E1, size: 0x8, addend: 0x0, symName: __ZNSt3__113match_resultsINS_11__wrap_iterIPKcEENS_9allocatorINS_9sub_matchIS4_EEEEE8__assignB8ne190102IS3_NS5_INS6_IS3_EEEEEEvS4_S4_RKNS0_IT_T0_EEb, symObjAddr: 0x2F300, symBinAddr: 0x2FDC0, symSize: 0x1C0 }
  - { offset: 0xF2EE9, size: 0x8, addend: 0x0, symName: __ZNKSt3__16vectorINS_12basic_stringIcNS_11char_traitsIcEENS_9allocatorIcEEEENS4_IS6_EEE20__throw_length_errorB8ne190102Ev, symObjAddr: 0x2D570, symBinAddr: 0x2E030, symSize: 0x10 }
  - { offset: 0xF2F13, size: 0x8, addend: 0x0, symName: __ZNSt3__119__throw_regex_errorB8ne190102ILNS_15regex_constants10error_typeE2EEEvv, symObjAddr: 0x2D580, symBinAddr: 0x2E040, symSize: 0x50 }
  - { offset: 0xF2F1E, size: 0x8, addend: 0x0, symName: __ZNKSt3__112basic_stringIcNS_11char_traitsIcEENS_9allocatorIcEEE20__throw_out_of_rangeB8ne190102Ev, symObjAddr: 0x31D60, symBinAddr: 0x32820, symSize: 0x10 }
  - { offset: 0xF2F48, size: 0x8, addend: 0x0, symName: __ZNKSt3__16__treeINS_12__value_typeINS_12basic_stringIcNS_11char_traitsIcEENS_9allocatorIcEEEEiEENS_19__map_value_compareIS7_S8_NS_4lessIS7_EELb1EEENS5_IS8_EEE4findIS7_EENS_21__tree_const_iteratorIS8_PNS_11__tree_nodeIS8_PvEElEERKT_, symObjAddr: 0x31D70, symBinAddr: 0x32830, symSize: 0x110 }
  - { offset: 0xF2F53, size: 0x8, addend: 0x0, symName: __ZNKSt3__16vectorIiNS_9allocatorIiEEE20__throw_length_errorB8ne190102Ev, symObjAddr: 0x3C580, symBinAddr: 0x3D040, symSize: 0x10 }
  - { offset: 0xF2F7D, size: 0x8, addend: 0x0, symName: '__ZNSt3__110__function6__funcIZ18whisper_init_stateE3$_0NS_9allocatorIS2_EEFP11ggml_cgraphvEED1Ev', symObjAddr: 0x3C590, symBinAddr: 0x3D050, symSize: 0x10 }
  - { offset: 0xF2F88, size: 0x8, addend: 0x0, symName: __ZNSt3__111basic_regexIcNS_12regex_traitsIcEEED1Ev, symObjAddr: 0x26130, symBinAddr: 0x26BF0, symSize: 0x50 }
  - { offset: 0xF3095, size: 0x8, addend: 0x0, symName: _whisper_token_count, symObjAddr: 0x8BD0, symBinAddr: 0x9690, symSize: 0x20 }
  - { offset: 0xF3174, size: 0x8, addend: 0x0, symName: _whisper_lang_max_id, symObjAddr: 0x8BF0, symBinAddr: 0x96B0, symSize: 0x70 }
  - { offset: 0xF3192, size: 0x8, addend: 0x0, symName: _whisper_lang_max_id, symObjAddr: 0x8BF0, symBinAddr: 0x96B0, symSize: 0x70 }
  - { offset: 0xF31BE, size: 0x8, addend: 0x0, symName: _whisper_lang_max_id, symObjAddr: 0x8BF0, symBinAddr: 0x96B0, symSize: 0x70 }
  - { offset: 0xF31D4, size: 0x8, addend: 0x0, symName: _whisper_lang_max_id, symObjAddr: 0x8BF0, symBinAddr: 0x96B0, symSize: 0x70 }
  - { offset: 0xF3445, size: 0x8, addend: 0x0, symName: _whisper_lang_id, symObjAddr: 0x8C60, symBinAddr: 0x9720, symSize: 0x3C0 }
  - { offset: 0xF444D, size: 0x8, addend: 0x0, symName: __ZNKSt3__13mapINS_12basic_stringIcNS_11char_traitsIcEENS_9allocatorIcEEEENS_4pairIiS6_EENS_4lessIS6_EENS4_INS7_IKS6_S8_EEEEE2atERSB_, symObjAddr: 0x9020, symBinAddr: 0x9AE0, symSize: 0x110 }
  - { offset: 0xF486F, size: 0x8, addend: 0x0, symName: _whisper_lang_str_full, symObjAddr: 0x91D0, symBinAddr: 0x9C90, symSize: 0xA0 }
  - { offset: 0xF4F91, size: 0x8, addend: 0x0, symName: _whisper_lang_auto_detect_with_state, symObjAddr: 0x9270, symBinAddr: 0x9D30, symSize: 0x480 }
  - { offset: 0xF6048, size: 0x8, addend: 0x0, symName: _whisper_token_sot, symObjAddr: 0x96F0, symBinAddr: 0xA1B0, symSize: 0x10 }
  - { offset: 0xF6065, size: 0x8, addend: 0x0, symName: _whisper_token_lang, symObjAddr: 0x9700, symBinAddr: 0xA1C0, symSize: 0x10 }
  - { offset: 0xF60A9, size: 0x8, addend: 0x0, symName: _whisper_lang_auto_detect, symObjAddr: 0x9710, symBinAddr: 0xA1D0, symSize: 0x20 }
  - { offset: 0xF6136, size: 0x8, addend: 0x0, symName: _whisper_model_n_vocab, symObjAddr: 0x9730, symBinAddr: 0xA1F0, symSize: 0x10 }
  - { offset: 0xF6161, size: 0x8, addend: 0x0, symName: _whisper_model_n_audio_ctx, symObjAddr: 0x9740, symBinAddr: 0xA200, symSize: 0x10 }
  - { offset: 0xF618C, size: 0x8, addend: 0x0, symName: _whisper_model_n_audio_state, symObjAddr: 0x9750, symBinAddr: 0xA210, symSize: 0x10 }
  - { offset: 0xF61B7, size: 0x8, addend: 0x0, symName: _whisper_model_n_audio_head, symObjAddr: 0x9760, symBinAddr: 0xA220, symSize: 0x10 }
  - { offset: 0xF61E2, size: 0x8, addend: 0x0, symName: _whisper_model_n_audio_layer, symObjAddr: 0x9770, symBinAddr: 0xA230, symSize: 0x10 }
  - { offset: 0xF620D, size: 0x8, addend: 0x0, symName: _whisper_model_n_text_ctx, symObjAddr: 0x9780, symBinAddr: 0xA240, symSize: 0x10 }
  - { offset: 0xF6238, size: 0x8, addend: 0x0, symName: _whisper_model_n_text_state, symObjAddr: 0x9790, symBinAddr: 0xA250, symSize: 0x10 }
  - { offset: 0xF6263, size: 0x8, addend: 0x0, symName: _whisper_model_n_text_head, symObjAddr: 0x97A0, symBinAddr: 0xA260, symSize: 0x10 }
  - { offset: 0xF628E, size: 0x8, addend: 0x0, symName: _whisper_model_n_text_layer, symObjAddr: 0x97B0, symBinAddr: 0xA270, symSize: 0x10 }
  - { offset: 0xF62B9, size: 0x8, addend: 0x0, symName: _whisper_model_n_mels, symObjAddr: 0x97C0, symBinAddr: 0xA280, symSize: 0x10 }
  - { offset: 0xF62E4, size: 0x8, addend: 0x0, symName: _whisper_model_ftype, symObjAddr: 0x97D0, symBinAddr: 0xA290, symSize: 0x10 }
  - { offset: 0xF630F, size: 0x8, addend: 0x0, symName: _whisper_model_type, symObjAddr: 0x97E0, symBinAddr: 0xA2A0, symSize: 0x10 }
  - { offset: 0xF633A, size: 0x8, addend: 0x0, symName: _whisper_model_type_readable, symObjAddr: 0x97F0, symBinAddr: 0xA2B0, symSize: 0x30 }
  - { offset: 0xF6365, size: 0x8, addend: 0x0, symName: _whisper_n_len_from_state, symObjAddr: 0x9820, symBinAddr: 0xA2E0, symSize: 0x10 }
  - { offset: 0xF6382, size: 0x8, addend: 0x0, symName: _whisper_n_len, symObjAddr: 0x9830, symBinAddr: 0xA2F0, symSize: 0x20 }
  - { offset: 0xF63AD, size: 0x8, addend: 0x0, symName: _whisper_n_vocab, symObjAddr: 0x9850, symBinAddr: 0xA310, symSize: 0x10 }
  - { offset: 0xF63D8, size: 0x8, addend: 0x0, symName: _whisper_n_text_ctx, symObjAddr: 0x9860, symBinAddr: 0xA320, symSize: 0x10 }
  - { offset: 0xF63F5, size: 0x8, addend: 0x0, symName: _whisper_n_audio_ctx, symObjAddr: 0x9870, symBinAddr: 0xA330, symSize: 0x10 }
  - { offset: 0xF6412, size: 0x8, addend: 0x0, symName: _whisper_is_multilingual, symObjAddr: 0x9880, symBinAddr: 0xA340, symSize: 0x20 }
  - { offset: 0xF6451, size: 0x8, addend: 0x0, symName: _whisper_get_logits, symObjAddr: 0x98A0, symBinAddr: 0xA360, symSize: 0x20 }
  - { offset: 0xF649F, size: 0x8, addend: 0x0, symName: _whisper_get_logits_from_state, symObjAddr: 0x98C0, symBinAddr: 0xA380, symSize: 0x10 }
  - { offset: 0xF654D, size: 0x8, addend: 0x0, symName: _whisper_token_to_str, symObjAddr: 0x98D0, symBinAddr: 0xA390, symSize: 0x60 }
  - { offset: 0xF66E1, size: 0x8, addend: 0x0, symName: _whisper_token_eot, symObjAddr: 0x9930, symBinAddr: 0xA3F0, symSize: 0x10 }
  - { offset: 0xF66FE, size: 0x8, addend: 0x0, symName: _whisper_token_solm, symObjAddr: 0x9940, symBinAddr: 0xA400, symSize: 0x10 }
  - { offset: 0xF6729, size: 0x8, addend: 0x0, symName: _whisper_token_prev, symObjAddr: 0x9950, symBinAddr: 0xA410, symSize: 0x10 }
  - { offset: 0xF6746, size: 0x8, addend: 0x0, symName: _whisper_token_nosp, symObjAddr: 0x9960, symBinAddr: 0xA420, symSize: 0x10 }
  - { offset: 0xF6763, size: 0x8, addend: 0x0, symName: _whisper_token_not, symObjAddr: 0x9970, symBinAddr: 0xA430, symSize: 0x10 }
  - { offset: 0xF6780, size: 0x8, addend: 0x0, symName: _whisper_token_beg, symObjAddr: 0x9980, symBinAddr: 0xA440, symSize: 0x10 }
  - { offset: 0xF679D, size: 0x8, addend: 0x0, symName: _whisper_token_translate, symObjAddr: 0x9990, symBinAddr: 0xA450, symSize: 0x10 }
  - { offset: 0xF67BA, size: 0x8, addend: 0x0, symName: _whisper_token_transcribe, symObjAddr: 0x99A0, symBinAddr: 0xA460, symSize: 0x10 }
  - { offset: 0xF67D7, size: 0x8, addend: 0x0, symName: _whisper_get_timings, symObjAddr: 0x99B0, symBinAddr: 0xA470, symSize: 0xC0 }
  - { offset: 0xF6899, size: 0x8, addend: 0x0, symName: _whisper_print_timings, symObjAddr: 0x9A70, symBinAddr: 0xA530, symSize: 0x2C0 }
  - { offset: 0xF6C39, size: 0x8, addend: 0x0, symName: _whisper_reset_timings, symObjAddr: 0x9D30, symBinAddr: 0xA7F0, symSize: 0x40 }
  - { offset: 0xF6D11, size: 0x8, addend: 0x0, symName: _whisper_print_system_info.cold.1, symObjAddr: 0x421C0, symBinAddr: 0x155AD0, symSize: 0x50 }
  - { offset: 0xF6D9A, size: 0x8, addend: 0x0, symName: _whisper_vad_default_context_params, symObjAddr: 0xA0F0, symBinAddr: 0xABB0, symSize: 0x10 }
  - { offset: 0xF6DC7, size: 0x8, addend: 0x0, symName: _whisper_vad_default_params, symObjAddr: 0xA100, symBinAddr: 0xABC0, symSize: 0x30 }
  - { offset: 0xF6DE6, size: 0x8, addend: 0x0, symName: _whisper_vad_init_from_file_with_params, symObjAddr: 0xA130, symBinAddr: 0xABF0, symSize: 0x190 }
  - { offset: 0xF7045, size: 0x8, addend: 0x0, symName: _whisper_vad_init_with_params, symObjAddr: 0xA2C0, symBinAddr: 0xAD80, symSize: 0x1E30 }
  - { offset: 0xFDD71, size: 0x8, addend: 0x0, symName: '__ZZ28whisper_vad_init_with_paramsENK3$_1clE10vad_tensorP11ggml_tensor', symObjAddr: 0xC570, symBinAddr: 0xD030, symSize: 0x7F0 }
  - { offset: 0xFFE6E, size: 0x8, addend: 0x0, symName: __ZNKSt3__16vectorINS_4pairIP19ggml_backend_deviceP24ggml_backend_buffer_typeEENS_9allocatorIS6_EEE20__throw_length_errorB8ne190102Ev, symObjAddr: 0x226B0, symBinAddr: 0x23170, symSize: 0x10 }
  - { offset: 0xFFE98, size: 0x8, addend: 0x0, symName: __ZNKSt3__16vectorIP12ggml_contextNS_9allocatorIS2_EEE20__throw_length_errorB8ne190102Ev, symObjAddr: 0x226C0, symBinAddr: 0x23180, symSize: 0x10 }
  - { offset: 0x10102D, size: 0x8, addend: 0x0, symName: __ZNKSt3__13mapI10vad_tensorPKcNS_4lessIS1_EENS_9allocatorINS_4pairIKS1_S3_EEEEE2atERS8_, symObjAddr: 0x31F00, symBinAddr: 0x329C0, symSize: 0x50 }
  - { offset: 0x10112F, size: 0x8, addend: 0x0, symName: __ZL6formatPKcz, symObjAddr: 0x223E0, symBinAddr: 0x22EA0, symSize: 0x200 }
  - { offset: 0x10185B, size: 0x8, addend: 0x0, symName: __ZNKSt3__16vectorIP12ggml_contextNS_9allocatorIS2_EEE20__throw_length_errorB8ne190102Ev, symObjAddr: 0x226C0, symBinAddr: 0x23180, symSize: 0x10 }
  - { offset: 0x101885, size: 0x8, addend: 0x0, symName: __ZN15whisper_contextD2Ev, symObjAddr: 0x226D0, symBinAddr: 0x23190, symSize: 0xE0 }
  - { offset: 0x101890, size: 0x8, addend: 0x0, symName: __ZNSt3__110unique_ptrI12ggml_context20ggml_context_deleterED1B8ne190102Ev, symObjAddr: 0x22680, symBinAddr: 0x23140, symSize: 0x30 }
  - { offset: 0x101B88, size: 0x8, addend: 0x0, symName: _whisper_vad_detect_speech, symObjAddr: 0xCD60, symBinAddr: 0xD820, symSize: 0x4C0 }
  - { offset: 0x102CD5, size: 0x8, addend: 0x0, symName: __ZL23whisper_vad_build_graphR19whisper_vad_context, symObjAddr: 0xD220, symBinAddr: 0xDCE0, symSize: 0x510 }
  - { offset: 0x103A2E, size: 0x8, addend: 0x0, symName: _whisper_vad_segments_n_segments, symObjAddr: 0xD810, symBinAddr: 0xE2D0, symSize: 0x20 }
  - { offset: 0x103AA2, size: 0x8, addend: 0x0, symName: _whisper_vad_segments_get_segment_t0, symObjAddr: 0xD830, symBinAddr: 0xE2F0, symSize: 0x20 }
  - { offset: 0x103B03, size: 0x8, addend: 0x0, symName: _whisper_vad_segments_get_segment_t1, symObjAddr: 0xD850, symBinAddr: 0xE310, symSize: 0x20 }
  - { offset: 0x103B64, size: 0x8, addend: 0x0, symName: _whisper_vad_n_probs, symObjAddr: 0xD870, symBinAddr: 0xE330, symSize: 0x20 }
  - { offset: 0x103BA3, size: 0x8, addend: 0x0, symName: _whisper_vad_probs, symObjAddr: 0xD890, symBinAddr: 0xE350, symSize: 0x10 }
  - { offset: 0x1042E8, size: 0x8, addend: 0x0, symName: __ZNSt3__16vectorI19whisper_vad_segmentNS_9allocatorIS1_EEE8__appendEm, symObjAddr: 0x3DE30, symBinAddr: 0x3E8F0, symSize: 0x140 }
  - { offset: 0x10476E, size: 0x8, addend: 0x0, symName: __ZNKSt3__16vectorIZ31whisper_vad_segments_from_probsE16speech_segment_tNS_9allocatorIS1_EEE20__throw_length_errorB8ne190102Ev, symObjAddr: 0x3DE20, symBinAddr: 0x3E8E0, symSize: 0x10 }
  - { offset: 0x104794, size: 0x8, addend: 0x0, symName: __ZNSt3__16vectorI19whisper_vad_segmentNS_9allocatorIS1_EEE8__appendEm, symObjAddr: 0x3DE30, symBinAddr: 0x3E8F0, symSize: 0x140 }
  - { offset: 0x10479F, size: 0x8, addend: 0x0, symName: _whisper_vad_segments_from_samples, symObjAddr: 0xE560, symBinAddr: 0xF020, symSize: 0x80 }
  - { offset: 0x1048A7, size: 0x8, addend: 0x0, symName: _whisper_vad_free_segments, symObjAddr: 0xE5E0, symBinAddr: 0xF0A0, symSize: 0x40 }
  - { offset: 0x104A68, size: 0x8, addend: 0x0, symName: _whisper_context_default_params_by_ref, symObjAddr: 0xE620, symBinAddr: 0xF0E0, symSize: 0x50 }
  - { offset: 0x104ACE, size: 0x8, addend: 0x0, symName: _whisper_full_default_params_by_ref, symObjAddr: 0xE670, symBinAddr: 0xF130, symSize: 0x260 }
  - { offset: 0x104B76, size: 0x8, addend: 0x0, symName: _whisper_full_default_params, symObjAddr: 0xE8D0, symBinAddr: 0xF390, symSize: 0x170 }
  - { offset: 0x104BC1, size: 0x8, addend: 0x0, symName: __ZNSt3__16vectorINS_12basic_stringIcNS_11char_traitsIcEENS_9allocatorIcEEEENS4_IS6_EEED1B8ne190102Ev, symObjAddr: 0xEA40, symBinAddr: 0xF500, symSize: 0x70 }
  - { offset: 0x10ACBF, size: 0x8, addend: 0x0, symName: __ZNSt3__16vectorIiNS_9allocatorIiEEE8__appendEm, symObjAddr: 0x3E430, symBinAddr: 0x3EEF0, symSize: 0x150 }
  - { offset: 0x10B147, size: 0x8, addend: 0x0, symName: __ZNSt3__16vectorIiNS_9allocatorIiEEE18__assign_with_sizeB8ne190102IPKiS6_EEvT_T0_l, symObjAddr: 0x3E580, symBinAddr: 0x3F040, symSize: 0x150 }
  - { offset: 0x10BCA8, size: 0x8, addend: 0x0, symName: __ZL29whisper_grammar_advance_stackRKNSt3__16vectorINS0_I23whisper_grammar_elementNS_9allocatorIS1_EEEENS2_IS4_EEEERKNS0_IPKS1_NS2_ISA_EEEERNS0_ISC_NS2_ISC_EEEE, symObjAddr: 0x32140, symBinAddr: 0x32C00, symSize: 0x520 }
  - { offset: 0x10D5C2, size: 0x8, addend: 0x0, symName: __ZNSt3__16vectorIiNS_9allocatorIiEEE18__insert_with_sizeB8ne190102INS_11__wrap_iterIPiEES7_EES7_NS5_IPKiEET_T0_l, symObjAddr: 0x3E870, symBinAddr: 0x3F330, symSize: 0x2D0 }
  - { offset: 0x10E0AD, size: 0x8, addend: 0x0, symName: __ZL22whisper_process_logitsR15whisper_contextR13whisper_stateR15whisper_decoder19whisper_full_paramsf, symObjAddr: 0x17500, symBinAddr: 0x17FC0, symSize: 0x1F10 }
  - { offset: 0x112ADF, size: 0x8, addend: 0x0, symName: '__ZZ23whisper_full_with_stateENK3$_0clEv', symObjAddr: 0x19410, symBinAddr: 0x19ED0, symSize: 0x1DE0 }
  - { offset: 0x117418, size: 0x8, addend: 0x0, symName: __ZNSt3__16vectorINS0_I23whisper_grammar_elementNS_9allocatorIS1_EEEENS2_IS4_EEE18__assign_with_sizeB8ne190102IPS4_S8_EEvT_T0_l, symObjAddr: 0x38B80, symBinAddr: 0x39640, symSize: 0x290 }
  - { offset: 0x1180A5, size: 0x8, addend: 0x0, symName: __ZNSt3__16vectorINS0_IPK23whisper_grammar_elementNS_9allocatorIS3_EEEENS4_IS6_EEE18__assign_with_sizeB8ne190102IPS6_SA_EEvT_T0_l, symObjAddr: 0x38F60, symBinAddr: 0x39A20, symSize: 0x290 }
  - { offset: 0x118D32, size: 0x8, addend: 0x0, symName: __ZNSt3__16vectorI18whisper_token_dataNS_9allocatorIS1_EEE8__appendEm, symObjAddr: 0x3DF80, symBinAddr: 0x3EA40, symSize: 0x1A0 }
  - { offset: 0x119161, size: 0x8, addend: 0x0, symName: __ZNSt3__16__treeINS_12__value_typeIiiEENS_19__map_value_compareIiS2_NS_4lessIiEELb1EEENS_9allocatorIS2_EEE7destroyEPNS_11__tree_nodeIS2_PvEE, symObjAddr: 0x39340, symBinAddr: 0x39E00, symSize: 0x40 }
  - { offset: 0x1192AA, size: 0x8, addend: 0x0, symName: __ZL12to_timestampxb, symObjAddr: 0x1B260, symBinAddr: 0x1BD20, symSize: 0x160 }
  - { offset: 0x11966F, size: 0x8, addend: 0x0, symName: __ZNSt3__16vectorI15whisper_segmentNS_9allocatorIS1_EEE21__push_back_slow_pathIS1_EEPS1_OT_, symObjAddr: 0x3E120, symBinAddr: 0x3EBE0, symSize: 0x250 }
  - { offset: 0x11A033, size: 0x8, addend: 0x0, symName: __ZL42whisper_exp_compute_token_level_timestampsR15whisper_contextR13whisper_stateiff, symObjAddr: 0x1B400, symBinAddr: 0x1BEC0, symSize: 0xC20 }
  - { offset: 0x11AD36, size: 0x8, addend: 0x0, symName: __ZL20whisper_wrap_segmentR15whisper_contextR13whisper_stateib, symObjAddr: 0x1C020, symBinAddr: 0x1CAE0, symSize: 0x490 }
  - { offset: 0x11C0E2, size: 0x8, addend: 0x0, symName: __ZNSt3__116allocator_traitsINS_9allocatorIZ23whisper_full_with_stateE14beam_candidateEEE7destroyB8ne190102IS2_Li0EEEvRS3_PT_, symObjAddr: 0x38490, symBinAddr: 0x38F50, symSize: 0xE0 }
  - { offset: 0x11C8D5, size: 0x8, addend: 0x0, symName: __ZNSt3__16vectorINS0_IZ23whisper_full_with_stateE14beam_candidateNS_9allocatorIS1_EEEENS2_IS4_EEE16__destroy_vectorclB8ne190102Ev, symObjAddr: 0x3E6D0, symBinAddr: 0x3F190, symSize: 0x1A0 }
  - { offset: 0x11D331, size: 0x8, addend: 0x0, symName: __ZNKSt3__16vectorI23whisper_grammar_elementNS_9allocatorIS1_EEE20__throw_length_errorB8ne190102Ev, symObjAddr: 0x327C0, symBinAddr: 0x33280, symSize: 0x10 }
  - { offset: 0x11D35B, size: 0x8, addend: 0x0, symName: __ZNKSt3__16vectorIPK23whisper_grammar_elementNS_9allocatorIS3_EEE20__throw_length_errorB8ne190102Ev, symObjAddr: 0x327D0, symBinAddr: 0x33290, symSize: 0x10 }
  - { offset: 0x11D366, size: 0x8, addend: 0x0, symName: __ZNKSt3__16vectorIPK23whisper_grammar_elementNS_9allocatorIS3_EEE20__throw_length_errorB8ne190102Ev, symObjAddr: 0x327D0, symBinAddr: 0x33290, symSize: 0x10 }
  - { offset: 0x11D390, size: 0x8, addend: 0x0, symName: __ZNSt3__114__split_bufferINS_6vectorIPK23whisper_grammar_elementNS_9allocatorIS4_EEEERNS5_IS7_EEED1Ev, symObjAddr: 0x327E0, symBinAddr: 0x332A0, symSize: 0x60 }
  - { offset: 0x11D3A3, size: 0x8, addend: 0x0, symName: __ZNKSt3__16vectorINS0_I23whisper_grammar_elementNS_9allocatorIS1_EEEENS2_IS4_EEE20__throw_length_errorB8ne190102Ev, symObjAddr: 0x327B0, symBinAddr: 0x33270, symSize: 0x10 }
  - { offset: 0x11D3CD, size: 0x8, addend: 0x0, symName: __ZNKSt3__16vectorI23whisper_grammar_elementNS_9allocatorIS1_EEE20__throw_length_errorB8ne190102Ev, symObjAddr: 0x327C0, symBinAddr: 0x33280, symSize: 0x10 }
  - { offset: 0x11D3D8, size: 0x8, addend: 0x0, symName: __ZNKSt3__16vectorINS0_IPK23whisper_grammar_elementNS_9allocatorIS3_EEEENS4_IS6_EEE20__throw_length_errorB8ne190102Ev, symObjAddr: 0x32840, symBinAddr: 0x33300, symSize: 0x10 }
  - { offset: 0x11D402, size: 0x8, addend: 0x0, symName: __ZNSt3__16vectorINS0_IPK23whisper_grammar_elementNS_9allocatorIS3_EEEENS4_IS6_EEE21__push_back_slow_pathIRKS6_EEPS6_OT_, symObjAddr: 0x32850, symBinAddr: 0x33310, symSize: 0x1B0 }
  - { offset: 0x11D40D, size: 0x8, addend: 0x0, symName: __ZNKSt3__16vectorIZ23whisper_full_with_stateE14beam_candidateNS_9allocatorIS1_EEE20__throw_length_errorB8ne190102Ev, symObjAddr: 0x38480, symBinAddr: 0x38F40, symSize: 0x10 }
  - { offset: 0x11D433, size: 0x8, addend: 0x0, symName: __ZNSt3__116allocator_traitsINS_9allocatorIZ23whisper_full_with_stateE14beam_candidateEEE7destroyB8ne190102IS2_Li0EEEvRS3_PT_, symObjAddr: 0x38490, symBinAddr: 0x38F50, symSize: 0xE0 }
  - { offset: 0x11D43E, size: 0x8, addend: 0x0, symName: __ZN15whisper_segmentD1Ev, symObjAddr: 0x1B3C0, symBinAddr: 0x1BE80, symSize: 0x40 }
  - { offset: 0x11D6EB, size: 0x8, addend: 0x0, symName: __ZNSt3__110unique_ptrI12ggml_backend20ggml_backend_deleterED1B8ne190102Ev, symObjAddr: 0x3A740, symBinAddr: 0x3B200, symSize: 0x30 }
  - { offset: 0x11D781, size: 0x8, addend: 0x0, symName: __ZNSt3__128__exception_guard_exceptionsINS_6vectorINS1_I23whisper_grammar_elementNS_9allocatorIS2_EEEENS3_IS5_EEE16__destroy_vectorEED1B8ne190102Ev, symObjAddr: 0x32740, symBinAddr: 0x33200, symSize: 0x70 }
  - { offset: 0x11DA46, size: 0x8, addend: 0x0, symName: '__ZNSt3__110unique_ptrINS_5tupleIJNS0_INS_15__thread_structENS_14default_deleteIS2_EEEEZ23whisper_full_with_stateE3$_2EEENS3_IS7_EEED1B8ne190102Ev', symObjAddr: 0x41D70, symBinAddr: 0x42830, symSize: 0x50 }
  - { offset: 0x11DC0C, size: 0x8, addend: 0x0, symName: __ZNSt3__110unique_ptrINS_15__thread_structENS_14default_deleteIS1_EEED1B8ne190102Ev, symObjAddr: 0x24420, symBinAddr: 0x24EE0, symSize: 0x40 }
  - { offset: 0x11DCA3, size: 0x8, addend: 0x0, symName: '__ZNSt3__110unique_ptrINS_5tupleIJNS0_INS_15__thread_structENS_14default_deleteIS2_EEEEZ23whisper_full_with_stateE3$_0EEENS3_IS7_EEED1B8ne190102Ev', symObjAddr: 0x3EBC0, symBinAddr: 0x3F680, symSize: 0x50 }
  - { offset: 0x11DE69, size: 0x8, addend: 0x0, symName: _whisper_full_with_state.cold.2, symObjAddr: 0x42260, symBinAddr: 0x155B70, symSize: 0x50 }
  - { offset: 0x11E107, size: 0x8, addend: 0x0, symName: __ZNSt3__16vectorINS0_IPK23whisper_grammar_elementNS_9allocatorIS3_EEEENS4_IS6_EEED1B8ne190102Ev, symObjAddr: 0x32660, symBinAddr: 0x33120, symSize: 0x70 }
  - { offset: 0x11E3D4, size: 0x8, addend: 0x0, symName: __ZNSt3__128__exception_guard_exceptionsINS_6vectorINS1_IPK23whisper_grammar_elementNS_9allocatorIS4_EEEENS5_IS7_EEE16__destroy_vectorEED1B8ne190102Ev, symObjAddr: 0x38860, symBinAddr: 0x39320, symSize: 0x70 }
  - { offset: 0x11E699, size: 0x8, addend: 0x0, symName: __ZNSt3__16vectorINS0_I23whisper_grammar_elementNS_9allocatorIS1_EEEENS2_IS4_EEED1B8ne190102Ev, symObjAddr: 0x326D0, symBinAddr: 0x33190, symSize: 0x70 }
  - { offset: 0x11E966, size: 0x8, addend: 0x0, symName: _whisper_full_with_state.cold.1, symObjAddr: 0x42210, symBinAddr: 0x155B20, symSize: 0x50 }
  - { offset: 0x11ECE7, size: 0x8, addend: 0x0, symName: _whisper_full_with_state.cold.3, symObjAddr: 0x422B0, symBinAddr: 0x155BC0, symSize: 0x50 }
  - { offset: 0x11EF6E, size: 0x8, addend: 0x0, symName: __ZNSt3__16vectorIZ23whisper_full_with_stateE14beam_candidateNS_9allocatorIS1_EEED1B8ne190102Ev, symObjAddr: 0x1C4B0, symBinAddr: 0x1CF70, symSize: 0x70 }
  - { offset: 0x11F0C6, size: 0x8, addend: 0x0, symName: __ZN15whisper_grammaraSEOS_, symObjAddr: 0x173D0, symBinAddr: 0x17E90, symSize: 0x130 }
  - { offset: 0x1200E9, size: 0x8, addend: 0x0, symName: __ZNKSt3__13mapINS_12basic_stringIcNS_11char_traitsIcEENS_9allocatorIcEEEEiNS_4lessIS6_EENS4_INS_4pairIKS6_iEEEEE2atERSA_, symObjAddr: 0x32A00, symBinAddr: 0x334C0, symSize: 0x110 }
  - { offset: 0x120468, size: 0x8, addend: 0x0, symName: __ZNSt3__111basic_regexIcNS_12regex_traitsIcEEEC2B8ne190102EPKcNS_15regex_constants18syntax_option_typeE, symObjAddr: 0x32B10, symBinAddr: 0x335D0, symSize: 0xC0 }
  - { offset: 0x120641, size: 0x8, addend: 0x0, symName: __ZNKSt3__16__treeINS_12__value_typeINS_12basic_stringIcNS_11char_traitsIcEENS_9allocatorIcEEEEiEENS_19__map_value_compareIS7_S8_NS_4lessIS7_EELb1EEENS5_IS8_EEE4findIS7_EENS_21__tree_const_iteratorIS8_PNS_11__tree_nodeIS8_PvEElEERKT_, symObjAddr: 0x31D70, symBinAddr: 0x32830, symSize: 0x110 }
  - { offset: 0x1209CC, size: 0x8, addend: 0x0, symName: __ZNSt3__16vectorINS_4pairINS0_IjNS_9allocatorIjEEEE20whisper_partial_utf8EENS2_IS6_EEE9push_backB8ne190102EOS6_, symObjAddr: 0x36860, symBinAddr: 0x37320, symSize: 0x160 }
  - { offset: 0x120F82, size: 0x8, addend: 0x0, symName: __ZL33whisper_grammar_reject_candidatesRKNSt3__16vectorINS0_I23whisper_grammar_elementNS_9allocatorIS1_EEEENS2_IS4_EEEERKNS0_INS0_IPKS1_NS2_ISA_EEEENS2_ISC_EEEERKNS0_I25whisper_grammar_candidateNS2_ISH_EEEE, symObjAddr: 0x36E70, symBinAddr: 0x37930, symSize: 0xF0 }
  - { offset: 0x1213AD, size: 0x8, addend: 0x0, symName: __ZL22whisper_process_logitsR15whisper_contextR13whisper_stateR15whisper_decoder19whisper_full_paramsf.cold.1, symObjAddr: 0x42300, symBinAddr: 0x155C10, symSize: 0x30 }
  - { offset: 0x1213C5, size: 0x8, addend: 0x0, symName: __ZNKSt3__16vectorI25whisper_grammar_candidateNS_9allocatorIS1_EEE20__throw_length_errorB8ne190102Ev, symObjAddr: 0x36FE0, symBinAddr: 0x37AA0, symSize: 0x10 }
  - { offset: 0x1213EF, size: 0x8, addend: 0x0, symName: __ZL43whisper_grammar_reject_candidates_for_stackRKNSt3__16vectorINS0_I23whisper_grammar_elementNS_9allocatorIS1_EEEENS2_IS4_EEEERKNS0_IPKS1_NS2_ISA_EEEERKNS0_I25whisper_grammar_candidateNS2_ISF_EEEE, symObjAddr: 0x36FF0, symBinAddr: 0x37AB0, symSize: 0xDA0 }
  - { offset: 0x1213FA, size: 0x8, addend: 0x0, symName: __ZNSt3__16vectorINS_4pairINS0_IjNS_9allocatorIjEEEE20whisper_partial_utf8EENS2_IS6_EEED1B8ne190102Ev, symObjAddr: 0x36F60, symBinAddr: 0x37A20, symSize: 0x70 }
  - { offset: 0x12224F, size: 0x8, addend: 0x0, symName: __ZNSt3__16vectorI12whisper_pairIdiENS_9allocatorIS2_EEE8__appendEm, symObjAddr: 0x38300, symBinAddr: 0x38DC0, symSize: 0x170 }
  - { offset: 0x1227C4, size: 0x8, addend: 0x0, symName: __ZNSt3__121discrete_distributionIiE10param_type6__initEv, symObjAddr: 0x37E80, symBinAddr: 0x38940, symSize: 0x1E0 }
  - { offset: 0x122F2F, size: 0x8, addend: 0x0, symName: __ZNSt3__121discrete_distributionIiEclINS_23mersenne_twister_engineIjLm32ELm624ELm397ELm31ELj2567483615ELm11ELj4294967295ELm7ELj2636928640ELm15ELj4022730752ELm18ELj1812433253EEEEEiRT_RKNS1_10param_typeE, symObjAddr: 0x38130, symBinAddr: 0x38BF0, symSize: 0x1D0 }
  - { offset: 0x12321D, size: 0x8, addend: 0x0, symName: __ZN15whisper_grammarC2ERKS_, symObjAddr: 0x38570, symBinAddr: 0x39030, symSize: 0x1A0 }
  - { offset: 0x12380C, size: 0x8, addend: 0x0, symName: __ZNKSt3__16vectorIdNS_9allocatorIdEEE20__throw_length_errorB8ne190102Ev, symObjAddr: 0x38060, symBinAddr: 0x38B20, symSize: 0x10 }
  - { offset: 0x123836, size: 0x8, addend: 0x0, symName: __ZNSt3__16vectorIdNS_9allocatorIdEEE13shrink_to_fitEv, symObjAddr: 0x38070, symBinAddr: 0x38B30, symSize: 0xC0 }
  - { offset: 0x123841, size: 0x8, addend: 0x0, symName: __ZZ23whisper_full_with_stateEN14beam_candidateD1Ev, symObjAddr: 0x37D90, symBinAddr: 0x38850, symSize: 0xE0 }
  - { offset: 0x124213, size: 0x8, addend: 0x0, symName: __ZN15whisper_segmentC2ERKS_, symObjAddr: 0x39380, symBinAddr: 0x39E40, symSize: 0x130 }
  - { offset: 0x124864, size: 0x8, addend: 0x0, symName: __ZNSt3__16vectorI18whisper_token_dataNS_9allocatorIS1_EEE18__insert_with_sizeB8ne190102INS_11__wrap_iterIPS1_EES8_EES8_NS6_IPKS1_EET_T0_l, symObjAddr: 0x394B0, symBinAddr: 0x39F70, symSize: 0x2C0 }
  - { offset: 0x12544A, size: 0x8, addend: 0x0, symName: __ZNSt3__16vectorI18whisper_token_dataNS_9allocatorIS1_EEE18__assign_with_sizeB8ne190102IPS1_S6_EEvT_T0_l, symObjAddr: 0x38A20, symBinAddr: 0x394E0, symSize: 0x160 }
  - { offset: 0x125FA6, size: 0x8, addend: 0x0, symName: _whisper_full, symObjAddr: 0x1C520, symBinAddr: 0x1CFE0, symSize: 0x180 }
  - { offset: 0x12676C, size: 0x8, addend: 0x0, symName: __ZL11whisper_vadP15whisper_contextP13whisper_state19whisper_full_paramsPKfiRNSt3__16vectorIfNS6_9allocatorIfEEEE, symObjAddr: 0x1C6A0, symBinAddr: 0x1D160, symSize: 0x1180 }
  - { offset: 0x12A18F, size: 0x8, addend: 0x0, symName: __ZNKSt3__16vectorI16vad_time_mappingNS_9allocatorIS1_EEE20__throw_length_errorB8ne190102Ev, symObjAddr: 0x39780, symBinAddr: 0x3A240, symSize: 0x10 }
  - { offset: 0x12A1B9, size: 0x8, addend: 0x0, symName: '__ZNSt3__111__introsortINS_17_ClassicAlgPolicyERZL11whisper_vadP15whisper_contextP13whisper_state19whisper_full_paramsPKfiRNS_6vectorIfNS_9allocatorIfEEEEE3$_0P16vad_time_mappingLb0EEEvT1_SI_T0_NS_15iterator_traitsISI_E15difference_typeEb', symObjAddr: 0x39790, symBinAddr: 0x3A250, symSize: 0xB80 }
  - { offset: 0x12A1C4, size: 0x8, addend: 0x0, symName: __ZNKSt3__16vectorIN13whisper_state16vad_segment_infoENS_9allocatorIS2_EEE20__throw_length_errorB8ne190102Ev, symObjAddr: 0x39770, symBinAddr: 0x3A230, symSize: 0x10 }
  - { offset: 0x12A1EE, size: 0x8, addend: 0x0, symName: __ZNKSt3__16vectorI16vad_time_mappingNS_9allocatorIS1_EEE20__throw_length_errorB8ne190102Ev, symObjAddr: 0x39780, symBinAddr: 0x3A240, symSize: 0x10 }
  - { offset: 0x12A757, size: 0x8, addend: 0x0, symName: _whisper_full_parallel, symObjAddr: 0x1D820, symBinAddr: 0x1E2E0, symSize: 0x9C0 }
  - { offset: 0x12C00A, size: 0x8, addend: 0x0, symName: __ZNSt3__16threadC2IRFiP15whisper_contextP13whisper_state19whisper_full_paramsPKfiEJRS3_RS5_S6_S8_RKiELi0EEEOT_DpOT0_, symObjAddr: 0x41DD0, symBinAddr: 0x42890, symSize: 0x120 }
  - { offset: 0x12C689, size: 0x8, addend: 0x0, symName: __ZNKSt3__16vectorIP13whisper_stateNS_9allocatorIS2_EEE20__throw_length_errorB8ne190102Ev, symObjAddr: 0x41DC0, symBinAddr: 0x42880, symSize: 0x10 }
  - { offset: 0x12C6B3, size: 0x8, addend: 0x0, symName: __ZNSt3__16threadC2IRFiP15whisper_contextP13whisper_state19whisper_full_paramsPKfiEJRS3_RS5_S6_S8_RKiELi0EEEOT_DpOT0_, symObjAddr: 0x41DD0, symBinAddr: 0x42890, symSize: 0x120 }
  - { offset: 0x12C6BE, size: 0x8, addend: 0x0, symName: _whisper_full_n_segments_from_state, symObjAddr: 0x1E1E0, symBinAddr: 0x1ECA0, symSize: 0x20 }
  - { offset: 0x12C70C, size: 0x8, addend: 0x0, symName: _whisper_full_n_segments, symObjAddr: 0x1E200, symBinAddr: 0x1ECC0, symSize: 0x30 }
  - { offset: 0x12C75A, size: 0x8, addend: 0x0, symName: _whisper_full_lang_id_from_state, symObjAddr: 0x1E230, symBinAddr: 0x1ECF0, symSize: 0x10 }
  - { offset: 0x12C785, size: 0x8, addend: 0x0, symName: _whisper_full_lang_id, symObjAddr: 0x1E240, symBinAddr: 0x1ED00, symSize: 0x20 }
  - { offset: 0x12C90E, size: 0x8, addend: 0x0, symName: _whisper_full_get_segment_t0_from_state, symObjAddr: 0x1E260, symBinAddr: 0x1ED20, symSize: 0xF0 }
  - { offset: 0x12CC41, size: 0x8, addend: 0x0, symName: _whisper_full_get_segment_t1_from_state, symObjAddr: 0x1E350, symBinAddr: 0x1EE10, symSize: 0x1B0 }
  - { offset: 0x12D1E7, size: 0x8, addend: 0x0, symName: _whisper_full_get_segment_t0, symObjAddr: 0x1E500, symBinAddr: 0x1EFC0, symSize: 0x100 }
  - { offset: 0x12D512, size: 0x8, addend: 0x0, symName: _whisper_full_get_segment_t1, symObjAddr: 0x1E600, symBinAddr: 0x1F0C0, symSize: 0x20 }
  - { offset: 0x12D565, size: 0x8, addend: 0x0, symName: _whisper_full_get_segment_speaker_turn_next_from_state, symObjAddr: 0x1E620, symBinAddr: 0x1F0E0, symSize: 0x20 }
  - { offset: 0x12D5CA, size: 0x8, addend: 0x0, symName: _whisper_full_get_segment_speaker_turn_next, symObjAddr: 0x1E640, symBinAddr: 0x1F100, symSize: 0x30 }
  - { offset: 0x12D62F, size: 0x8, addend: 0x0, symName: _whisper_full_get_segment_text_from_state, symObjAddr: 0x1E670, symBinAddr: 0x1F130, symSize: 0x30 }
  - { offset: 0x12D73C, size: 0x8, addend: 0x0, symName: _whisper_full_get_segment_text, symObjAddr: 0x1E6A0, symBinAddr: 0x1F160, symSize: 0x40 }
  - { offset: 0x12D849, size: 0x8, addend: 0x0, symName: _whisper_full_n_tokens_from_state, symObjAddr: 0x1E6E0, symBinAddr: 0x1F1A0, symSize: 0x30 }
  - { offset: 0x12D8D4, size: 0x8, addend: 0x0, symName: _whisper_full_n_tokens, symObjAddr: 0x1E710, symBinAddr: 0x1F1D0, symSize: 0x40 }
  - { offset: 0x12D95F, size: 0x8, addend: 0x0, symName: _whisper_full_get_token_text_from_state, symObjAddr: 0x1E750, symBinAddr: 0x1F210, symSize: 0x100 }
  - { offset: 0x12DE48, size: 0x8, addend: 0x0, symName: _whisper_full_get_token_text, symObjAddr: 0x1E850, symBinAddr: 0x1F310, symSize: 0x110 }
  - { offset: 0x12E2FE, size: 0x8, addend: 0x0, symName: _whisper_full_get_token_id_from_state, symObjAddr: 0x1E960, symBinAddr: 0x1F420, symSize: 0x30 }
  - { offset: 0x12E39D, size: 0x8, addend: 0x0, symName: _whisper_full_get_token_id, symObjAddr: 0x1E990, symBinAddr: 0x1F450, symSize: 0x30 }
  - { offset: 0x12E43C, size: 0x8, addend: 0x0, symName: _whisper_full_get_token_data_from_state, symObjAddr: 0x1E9C0, symBinAddr: 0x1F480, symSize: 0x50 }
  - { offset: 0x12E4DF, size: 0x8, addend: 0x0, symName: _whisper_full_get_token_data, symObjAddr: 0x1EA10, symBinAddr: 0x1F4D0, symSize: 0x50 }
  - { offset: 0x12E582, size: 0x8, addend: 0x0, symName: _whisper_full_get_token_p_from_state, symObjAddr: 0x1EA60, symBinAddr: 0x1F520, symSize: 0x30 }
  - { offset: 0x12E626, size: 0x8, addend: 0x0, symName: _whisper_full_get_token_p, symObjAddr: 0x1EA90, symBinAddr: 0x1F550, symSize: 0x40 }
  - { offset: 0x12E6CA, size: 0x8, addend: 0x0, symName: _whisper_full_get_segment_no_speech_prob, symObjAddr: 0x1EAD0, symBinAddr: 0x1F590, symSize: 0x30 }
  - { offset: 0x12E72F, size: 0x8, addend: 0x0, symName: _whisper_full_get_segment_no_speech_prob_from_state, symObjAddr: 0x1EB00, symBinAddr: 0x1F5C0, symSize: 0x20 }
  - { offset: 0x12E794, size: 0x8, addend: 0x0, symName: _whisper_bench_memcpy, symObjAddr: 0x1EB20, symBinAddr: 0x1F5E0, symSize: 0x20 }
  - { offset: 0x12ED72, size: 0x8, addend: 0x0, symName: _whisper_bench_memcpy_str.cold.1, symObjAddr: 0x42330, symBinAddr: 0x155C40, symSize: 0x50 }
  - { offset: 0x12EDFB, size: 0x8, addend: 0x0, symName: '__ZNSt3__110unique_ptrINS_5tupleIJNS0_INS_15__thread_structENS_14default_deleteIS2_EEEEZ24whisper_bench_memcpy_strE3$_0iEEENS3_IS7_EEED1B8ne190102Ev', symObjAddr: 0x42170, symBinAddr: 0x42C30, symSize: 0x50 }
  - { offset: 0x12EFC1, size: 0x8, addend: 0x0, symName: _whisper_bench_ggml_mul_mat, symObjAddr: 0x1F850, symBinAddr: 0x20310, symSize: 0x20 }
  - { offset: 0x12F3F8, size: 0x8, addend: 0x0, symName: _whisper_bench_ggml_mul_mat_str.cold.1, symObjAddr: 0x42380, symBinAddr: 0x155C90, symSize: 0x50 }
  - { offset: 0x12F481, size: 0x8, addend: 0x0, symName: _whisper_log_set, symObjAddr: 0x20060, symBinAddr: 0x20B20, symSize: 0x30 }
  - { offset: 0x12F4D0, size: 0x8, addend: 0x0, symName: __ZL28whisper_log_callback_default14ggml_log_levelPKcPv, symObjAddr: 0x20090, symBinAddr: 0x20B50, symSize: 0x30 }
  - { offset: 0x12F536, size: 0x8, addend: 0x0, symName: _whisper_version, symObjAddr: 0x200C0, symBinAddr: 0x20B80, symSize: 0x10 }
  - { offset: 0x12F81E, size: 0x8, addend: 0x0, symName: __ZNSt3__13mapI10asr_tensorPKcNS_4lessIS1_EENS_9allocatorINS_4pairIKS1_S3_EEEEE6insertB8ne190102INS_20__map_const_iteratorINS_21__tree_const_iteratorINS_12__value_typeIS1_S3_EEPNS_11__tree_nodeISG_PvEElEEEEEEvT_SN_, symObjAddr: 0x200D0, symBinAddr: 0x20B90, symSize: 0x110 }
  - { offset: 0x12F866, size: 0x8, addend: 0x0, symName: __ZNSt3__13mapI10asr_tensorPKcNS_4lessIS1_EENS_9allocatorINS_4pairIKS1_S3_EEEEE6insertB8ne190102INS_20__map_const_iteratorINS_21__tree_const_iteratorINS_12__value_typeIS1_S3_EEPNS_11__tree_nodeISG_PvEElEEEEEEvT_SN_, symObjAddr: 0x200D0, symBinAddr: 0x20B90, symSize: 0x110 }
  - { offset: 0x12FBE2, size: 0x8, addend: 0x0, symName: __ZNSt3__16__treeINS_12__value_typeI10asr_tensorPKcEENS_19__map_value_compareIS2_S5_NS_4lessIS2_EELb1EEENS_9allocatorIS5_EEE12__find_equalIS2_EERPNS_16__tree_node_baseIPvEENS_21__tree_const_iteratorIS5_PNS_11__tree_nodeIS5_SF_EElEERPNS_15__tree_end_nodeISH_EESI_RKT_, symObjAddr: 0x201E0, symBinAddr: 0x20CA0, symSize: 0x160 }
  - { offset: 0x13018A, size: 0x8, addend: 0x0, symName: __ZNSt3__16__treeINS_12__value_typeI10asr_tensorPKcEENS_19__map_value_compareIS2_S5_NS_4lessIS2_EELb1EEENS_9allocatorIS5_EEE7destroyEPNS_11__tree_nodeIS5_PvEE, symObjAddr: 0x20500, symBinAddr: 0x20FC0, symSize: 0x40 }
  - { offset: 0x130533, size: 0x8, addend: 0x0, symName: __ZN15whisper_decoderD2Ev, symObjAddr: 0x20C70, symBinAddr: 0x21730, symSize: 0x130 }
  - { offset: 0x131251, size: 0x8, addend: 0x0, symName: __ZNSt12length_errorC1B8ne190102EPKc, symObjAddr: 0x20E40, symBinAddr: 0x21900, symSize: 0x30 }
  - { offset: 0x131901, size: 0x8, addend: 0x0, symName: __ZNKSt3__16vectorI15whisper_kv_cellNS_9allocatorIS1_EEE20__throw_length_errorB8ne190102Ev, symObjAddr: 0x21090, symBinAddr: 0x21B50, symSize: 0x10 }
  - { offset: 0x13192B, size: 0x8, addend: 0x0, symName: __ZL28get_alignment_heads_by_layerRK22whisper_context_paramsiii, symObjAddr: 0x210A0, symBinAddr: 0x21B60, symSize: 0x350 }
  - { offset: 0x131C27, size: 0x8, addend: 0x0, symName: __ZNKSt3__16vectorIjNS_9allocatorIjEEE20__throw_length_errorB8ne190102Ev, symObjAddr: 0x21470, symBinAddr: 0x21F30, symSize: 0x10 }
  - { offset: 0x131C51, size: 0x8, addend: 0x0, symName: __ZNKSt3__16vectorIP11ggml_tensorNS_9allocatorIS2_EEE20__throw_length_errorB8ne190102Ev, symObjAddr: 0x21480, symBinAddr: 0x21F40, symSize: 0x10 }
  - { offset: 0x131C5C, size: 0x8, addend: 0x0, symName: __ZNSt12out_of_rangeC1B8ne190102EPKc, symObjAddr: 0x21440, symBinAddr: 0x21F00, symSize: 0x30 }
  - { offset: 0x131D55, size: 0x8, addend: 0x0, symName: __ZNSt3__117bad_function_callD1Ev, symObjAddr: 0x214D0, symBinAddr: 0x21F90, symSize: 0x10 }
  - { offset: 0x131DAE, size: 0x8, addend: 0x0, symName: __ZNSt3__117bad_function_callD0Ev, symObjAddr: 0x214E0, symBinAddr: 0x21FA0, symSize: 0x20 }
  - { offset: 0x131E71, size: 0x8, addend: 0x0, symName: '__ZZ43whisper_init_from_file_with_params_no_stateEN3$_08__invokeEPvS0_m', symObjAddr: 0x21500, symBinAddr: 0x21FC0, symSize: 0x20 }
  - { offset: 0x131F60, size: 0x8, addend: 0x0, symName: '__ZZ43whisper_init_from_file_with_params_no_stateEN3$_18__invokeEPv', symObjAddr: 0x21520, symBinAddr: 0x21FE0, symSize: 0x20 }
  - { offset: 0x13204D, size: 0x8, addend: 0x0, symName: '__ZZ43whisper_init_from_file_with_params_no_stateEN3$_28__invokeEPv', symObjAddr: 0x21540, symBinAddr: 0x22000, symSize: 0x40 }
  - { offset: 0x132168, size: 0x8, addend: 0x0, symName: '__ZZ45whisper_init_from_buffer_with_params_no_stateEN3$_08__invokeEPvS0_m', symObjAddr: 0x21580, symBinAddr: 0x22040, symSize: 0x40 }
  - { offset: 0x132237, size: 0x8, addend: 0x0, symName: '__ZZ45whisper_init_from_buffer_with_params_no_stateEN3$_18__invokeEPv', symObjAddr: 0x215C0, symBinAddr: 0x22080, symSize: 0x20 }
  - { offset: 0x132275, size: 0x8, addend: 0x0, symName: '__ZZ45whisper_init_from_buffer_with_params_no_stateEN3$_28__invokeEPv', symObjAddr: 0x215E0, symBinAddr: 0x220A0, symSize: 0x10 }
  - { offset: 0x132716, size: 0x8, addend: 0x0, symName: __ZNKSt3__13mapI10asr_systemNS0_I10asr_tensorPKcNS_4lessIS2_EENS_9allocatorINS_4pairIKS2_S4_EEEEEENS5_IS1_EENS7_INS8_IKS1_SC_EEEEE2atERSE_, symObjAddr: 0x225E0, symBinAddr: 0x230A0, symSize: 0x50 }
  - { offset: 0x132818, size: 0x8, addend: 0x0, symName: __ZNKSt3__13mapI10asr_tensorPKcNS_4lessIS1_EENS_9allocatorINS_4pairIKS1_S3_EEEEE2atERS8_, symObjAddr: 0x22630, symBinAddr: 0x230F0, symSize: 0x50 }
  - { offset: 0x132D86, size: 0x8, addend: 0x0, symName: __ZNSt3__110unique_ptrINS_11__tree_nodeINS_12__value_typeINS_12basic_stringIcNS_11char_traitsIcEENS_9allocatorIcEEEEiEEPvEENS_22__tree_node_destructorINS6_ISB_EEEEED1B8ne190102Ev, symObjAddr: 0x22030, symBinAddr: 0x22AF0, symSize: 0x50 }
  - { offset: 0x1334FA, size: 0x8, addend: 0x0, symName: __ZNKSt3__16vectorI21whisper_layer_encoderNS_9allocatorIS1_EEE20__throw_length_errorB8ne190102Ev, symObjAddr: 0x22210, symBinAddr: 0x22CD0, symSize: 0x10 }
  - { offset: 0x133524, size: 0x8, addend: 0x0, symName: __ZNSt3__16vectorI21whisper_layer_decoderNS_9allocatorIS1_EEE8__appendEm, symObjAddr: 0x22220, symBinAddr: 0x22CE0, symSize: 0x1B0 }
  - { offset: 0x133843, size: 0x8, addend: 0x0, symName: __ZNKSt3__16vectorI21whisper_layer_decoderNS_9allocatorIS1_EEE20__throw_length_errorB8ne190102Ev, symObjAddr: 0x223D0, symBinAddr: 0x22E90, symSize: 0x10 }
  - { offset: 0x13386D, size: 0x8, addend: 0x0, symName: __ZL6formatPKcz, symObjAddr: 0x223E0, symBinAddr: 0x22EA0, symSize: 0x200 }
  - { offset: 0x133C7C, size: 0x8, addend: 0x0, symName: __ZNSt3__16__treeINS_12__value_typeIiNS_12basic_stringIcNS_11char_traitsIcEENS_9allocatorIcEEEEEENS_19__map_value_compareIiS8_NS_4lessIiEELb1EEENS5_IS8_EEE7destroyEPNS_11__tree_nodeIS8_PvEE, symObjAddr: 0x227B0, symBinAddr: 0x23270, symSize: 0x50 }
  - { offset: 0x133F7F, size: 0x8, addend: 0x0, symName: __ZNSt3__16__treeINS_12__value_typeINS_12basic_stringIcNS_11char_traitsIcEENS_9allocatorIcEEEEiEENS_19__map_value_compareIS7_S8_NS_4lessIS7_EELb1EEENS5_IS8_EEE7destroyEPNS_11__tree_nodeIS8_PvEE, symObjAddr: 0x22800, symBinAddr: 0x232C0, symSize: 0x50 }
  - { offset: 0x134282, size: 0x8, addend: 0x0, symName: __ZNSt3__16__treeINS_12__value_typeINS_12basic_stringIcNS_11char_traitsIcEENS_9allocatorIcEEEEP11ggml_tensorEENS_19__map_value_compareIS7_SA_NS_4lessIS7_EELb1EEENS5_ISA_EEE7destroyEPNS_11__tree_nodeISA_PvEE, symObjAddr: 0x22850, symBinAddr: 0x23310, symSize: 0x50 }
  - { offset: 0x134A59, size: 0x8, addend: 0x0, symName: __ZL3fftPfiS_, symObjAddr: 0x23690, symBinAddr: 0x24150, symSize: 0xB70 }
  - { offset: 0x13560D, size: 0x8, addend: 0x0, symName: __ZNSt3__110unique_ptrINS_5tupleIJNS0_INS_15__thread_structENS_14default_deleteIS2_EEEEPFviPKfRKNS_6vectorIfNS_9allocatorIfEEEEiiiiRK15whisper_filtersR11whisper_melEiS7_NS_17reference_wrapperISC_EExiiiNSL_ISF_EENSL_ISH_EEEEENS3_ISP_EEED1B8ne190102Ev, symObjAddr: 0x243D0, symBinAddr: 0x24E90, symSize: 0x50 }
  - { offset: 0x135BAA, size: 0x8, addend: 0x0, symName: __ZL27whisper_build_graph_encoderR15whisper_contextR13whisper_state.cold.1, symObjAddr: 0x423D0, symBinAddr: 0x155CE0, symSize: 0x30 }
  - { offset: 0x135C08, size: 0x8, addend: 0x0, symName: __ZL27whisper_build_graph_decoderR15whisper_contextR13whisper_stateRK13whisper_batchbb.cold.1, symObjAddr: 0x42400, symBinAddr: 0x155D10, symSize: 0x30 }
  - { offset: 0x135CBA, size: 0x8, addend: 0x0, symName: __ZNSt3__111basic_regexIcNS_12regex_traitsIcEEE7__parseINS_11__wrap_iterIPKcEEEET_S9_S9_, symObjAddr: 0x26290, symBinAddr: 0x26D50, symSize: 0x1D0 }
  - { offset: 0x13628A, size: 0x8, addend: 0x0, symName: __ZNSt3__110shared_ptrINS_13__empty_stateIcEEED1B8ne190102Ev, symObjAddr: 0x26250, symBinAddr: 0x26D10, symSize: 0x40 }
  - { offset: 0x136A40, size: 0x8, addend: 0x0, symName: __ZNSt3__111basic_regexIcNS_12regex_traitsIcEEE13__parse_egrepINS_11__wrap_iterIPKcEEEET_S9_S9_, symObjAddr: 0x26C00, symBinAddr: 0x276C0, symSize: 0x1E0 }
  - { offset: 0x13710F, size: 0x8, addend: 0x0, symName: __ZNSt3__111basic_regexIcNS_12regex_traitsIcEEE24__parse_extended_reg_expINS_11__wrap_iterIPKcEEEET_S9_S9_, symObjAddr: 0x26890, symBinAddr: 0x27350, symSize: 0x190 }
  - { offset: 0x1375B7, size: 0x8, addend: 0x0, symName: __ZNSt3__111basic_regexIcNS_12regex_traitsIcEEE21__parse_basic_reg_expINS_11__wrap_iterIPKcEEEET_S9_S9_, symObjAddr: 0x26730, symBinAddr: 0x271F0, symSize: 0x160 }
  - { offset: 0x137A4C, size: 0x8, addend: 0x0, symName: __ZNSt3__111basic_regexIcNS_12regex_traitsIcEEE12__parse_grepINS_11__wrap_iterIPKcEEEET_S9_S9_, symObjAddr: 0x26A20, symBinAddr: 0x274E0, symSize: 0x1E0 }
  - { offset: 0x13811B, size: 0x8, addend: 0x0, symName: __ZNSt3__111basic_regexIcNS_12regex_traitsIcEEE16__parse_ecma_expINS_11__wrap_iterIPKcEEEET_S9_S9_, symObjAddr: 0x264B0, symBinAddr: 0x26F70, symSize: 0x280 }
  - { offset: 0x138AA9, size: 0x8, addend: 0x0, symName: __ZNSt3__111basic_regexIcNS_12regex_traitsIcEEE17__parse_assertionINS_11__wrap_iterIPKcEEEET_S9_S9_, symObjAddr: 0x27000, symBinAddr: 0x27AC0, symSize: 0x2E0 }
  - { offset: 0x139263, size: 0x8, addend: 0x0, symName: __ZNSt3__111basic_regexIcNS_12regex_traitsIcEEE12__parse_atomINS_11__wrap_iterIPKcEEEET_S9_S9_, symObjAddr: 0x272E0, symBinAddr: 0x27DA0, symSize: 0x2C0 }
  - { offset: 0x139722, size: 0x8, addend: 0x0, symName: __ZNSt3__111basic_regexIcNS_12regex_traitsIcEEE23__parse_ERE_dupl_symbolINS_11__wrap_iterIPKcEEEET_S9_S9_PNS_16__owns_one_stateIcEEjj, symObjAddr: 0x275A0, symBinAddr: 0x28060, symSize: 0x3F0 }
  - { offset: 0x13A0EC, size: 0x8, addend: 0x0, symName: __ZNSt3__111basic_regexIcNS_12regex_traitsIcEEE18__parse_nondupl_REINS_11__wrap_iterIPKcEEEET_S9_S9_, symObjAddr: 0x2E380, symBinAddr: 0x2EE40, symSize: 0x1E0 }
  - { offset: 0x13A7BE, size: 0x8, addend: 0x0, symName: __ZNSt3__111basic_regexIcNS_12regex_traitsIcEEE22__parse_RE_dupl_symbolINS_11__wrap_iterIPKcEEEET_S9_S9_PNS_16__owns_one_stateIcEEjj, symObjAddr: 0x2E560, symBinAddr: 0x2F020, symSize: 0x260 }
  - { offset: 0x13B03E, size: 0x8, addend: 0x0, symName: __ZNSt3__111basic_regexIcNS_12regex_traitsIcEEE22__parse_ERE_expressionINS_11__wrap_iterIPKcEEEET_S9_S9_, symObjAddr: 0x2E9A0, symBinAddr: 0x2F460, symSize: 0x260 }
  - { offset: 0x13B62D, size: 0x8, addend: 0x0, symName: __ZNSt3__111__end_stateIcED1Ev, symObjAddr: 0x26E30, symBinAddr: 0x278F0, symSize: 0x10 }
  - { offset: 0x13B659, size: 0x8, addend: 0x0, symName: __ZNSt3__111__end_stateIcED0Ev, symObjAddr: 0x26E40, symBinAddr: 0x27900, symSize: 0x10 }
  - { offset: 0x13B67A, size: 0x8, addend: 0x0, symName: __ZNKSt3__111__end_stateIcE6__execERNS_7__stateIcEE, symObjAddr: 0x26E50, symBinAddr: 0x27910, symSize: 0x10 }
  - { offset: 0x13B6AE, size: 0x8, addend: 0x0, symName: __ZNKSt3__16__nodeIcE12__exec_splitEbRNS_7__stateIcEE, symObjAddr: 0x26E60, symBinAddr: 0x27920, symSize: 0x10 }
  - { offset: 0x13B6F5, size: 0x8, addend: 0x0, symName: __ZNKSt3__16__nodeIcE6__execERNS_7__stateIcEE, symObjAddr: 0x26E70, symBinAddr: 0x27930, symSize: 0x10 }
  - { offset: 0x13B741, size: 0x8, addend: 0x0, symName: __ZNSt3__120__shared_ptr_pointerIPNS_13__empty_stateIcEENS_10shared_ptrIS2_E27__shared_ptr_default_deleteIS2_S2_EENS_9allocatorIS2_EEED1Ev, symObjAddr: 0x26E80, symBinAddr: 0x27940, symSize: 0x10 }
  - { offset: 0x13B79C, size: 0x8, addend: 0x0, symName: __ZNSt3__120__shared_ptr_pointerIPNS_13__empty_stateIcEENS_10shared_ptrIS2_E27__shared_ptr_default_deleteIS2_S2_EENS_9allocatorIS2_EEED0Ev, symObjAddr: 0x26E90, symBinAddr: 0x27950, symSize: 0x20 }
  - { offset: 0x13B805, size: 0x8, addend: 0x0, symName: __ZNSt3__120__shared_ptr_pointerIPNS_13__empty_stateIcEENS_10shared_ptrIS2_E27__shared_ptr_default_deleteIS2_S2_EENS_9allocatorIS2_EEE16__on_zero_sharedEv, symObjAddr: 0x26EB0, symBinAddr: 0x27970, symSize: 0x20 }
  - { offset: 0x13B89C, size: 0x8, addend: 0x0, symName: __ZNKSt3__120__shared_ptr_pointerIPNS_13__empty_stateIcEENS_10shared_ptrIS2_E27__shared_ptr_default_deleteIS2_S2_EENS_9allocatorIS2_EEE13__get_deleterERKSt9type_info, symObjAddr: 0x26ED0, symBinAddr: 0x27990, symSize: 0x20 }
  - { offset: 0x13B967, size: 0x8, addend: 0x0, symName: __ZNSt3__120__shared_ptr_pointerIPNS_13__empty_stateIcEENS_10shared_ptrIS2_E27__shared_ptr_default_deleteIS2_S2_EENS_9allocatorIS2_EEE21__on_zero_shared_weakEv, symObjAddr: 0x26EF0, symBinAddr: 0x279B0, symSize: 0x10 }
  - { offset: 0x13BA41, size: 0x8, addend: 0x0, symName: __ZNSt3__113__empty_stateIcED1Ev, symObjAddr: 0x26F00, symBinAddr: 0x279C0, symSize: 0x30 }
  - { offset: 0x13BAB2, size: 0x8, addend: 0x0, symName: __ZNSt3__113__empty_stateIcED0Ev, symObjAddr: 0x26F30, symBinAddr: 0x279F0, symSize: 0x40 }
  - { offset: 0x13BAD8, size: 0x8, addend: 0x0, symName: __ZNSt3__113__empty_stateIcED0Ev, symObjAddr: 0x26F30, symBinAddr: 0x279F0, symSize: 0x40 }
  - { offset: 0x13BAF8, size: 0x8, addend: 0x0, symName: __ZNSt3__113__empty_stateIcED0Ev, symObjAddr: 0x26F30, symBinAddr: 0x279F0, symSize: 0x40 }
  - { offset: 0x13BB18, size: 0x8, addend: 0x0, symName: __ZNSt3__113__empty_stateIcED0Ev, symObjAddr: 0x26F30, symBinAddr: 0x279F0, symSize: 0x40 }
  - { offset: 0x13BB60, size: 0x8, addend: 0x0, symName: __ZNKSt3__113__empty_stateIcE6__execERNS_7__stateIcEE, symObjAddr: 0x26F70, symBinAddr: 0x27A30, symSize: 0x20 }
  - { offset: 0x13BBB3, size: 0x8, addend: 0x0, symName: __ZNSt3__116__owns_one_stateIcED1Ev, symObjAddr: 0x26F90, symBinAddr: 0x27A50, symSize: 0x30 }
  - { offset: 0x13BC1D, size: 0x8, addend: 0x0, symName: __ZNSt3__116__owns_one_stateIcED0Ev, symObjAddr: 0x26FC0, symBinAddr: 0x27A80, symSize: 0x40 }
  - { offset: 0x13BC4B, size: 0x8, addend: 0x0, symName: __ZNSt3__116__owns_one_stateIcED0Ev, symObjAddr: 0x26FC0, symBinAddr: 0x27A80, symSize: 0x40 }
  - { offset: 0x13BC6B, size: 0x8, addend: 0x0, symName: __ZNSt3__116__owns_one_stateIcED0Ev, symObjAddr: 0x26FC0, symBinAddr: 0x27A80, symSize: 0x40 }
  - { offset: 0x13BD95, size: 0x8, addend: 0x0, symName: __ZNSt3__111basic_regexIcNS_12regex_traitsIcEEEC1B8ne190102Ev, symObjAddr: 0x27990, symBinAddr: 0x28450, symSize: 0x60 }
  - { offset: 0x13BE68, size: 0x8, addend: 0x0, symName: __ZNSt3__111basic_regexIcNS_12regex_traitsIcEEE16__push_lookaheadERKS3_bj, symObjAddr: 0x279F0, symBinAddr: 0x284B0, symSize: 0xC0 }
  - { offset: 0x13C28C, size: 0x8, addend: 0x0, symName: __ZNSt3__111basic_regexIcNS_12regex_traitsIcEEE19__parse_atom_escapeINS_11__wrap_iterIPKcEEEET_S9_S9_, symObjAddr: 0x291E0, symBinAddr: 0x29CA0, symSize: 0x100 }
  - { offset: 0x13C54F, size: 0x8, addend: 0x0, symName: __ZNSt3__111basic_regexIcNS_12regex_traitsIcEEE26__parse_bracket_expressionINS_11__wrap_iterIPKcEEEET_S9_S9_, symObjAddr: 0x292E0, symBinAddr: 0x29DA0, symSize: 0x150 }
  - { offset: 0x13C88F, size: 0x8, addend: 0x0, symName: __ZNSt3__111basic_regexIcNS_12regex_traitsIcEEE25__parse_pattern_characterINS_11__wrap_iterIPKcEEEET_S9_S9_, symObjAddr: 0x29480, symBinAddr: 0x29F40, symSize: 0x1B0 }
  - { offset: 0x13CA92, size: 0x8, addend: 0x0, symName: __ZNSt3__111basic_regexIcNS_12regex_traitsIcEEE11__push_loopEmmPNS_16__owns_one_stateIcEEmmb, symObjAddr: 0x2DB30, symBinAddr: 0x2E5F0, symSize: 0x150 }
  - { offset: 0x13D0E5, size: 0x8, addend: 0x0, symName: __ZNSt3__120__l_anchor_multilineIcED1Ev, symObjAddr: 0x27B00, symBinAddr: 0x285C0, symSize: 0x30 }
  - { offset: 0x13D173, size: 0x8, addend: 0x0, symName: __ZNSt3__120__l_anchor_multilineIcED0Ev, symObjAddr: 0x27B30, symBinAddr: 0x285F0, symSize: 0x40 }
  - { offset: 0x13D1A4, size: 0x8, addend: 0x0, symName: __ZNSt3__120__l_anchor_multilineIcED0Ev, symObjAddr: 0x27B30, symBinAddr: 0x285F0, symSize: 0x40 }
  - { offset: 0x13D1C4, size: 0x8, addend: 0x0, symName: __ZNSt3__120__l_anchor_multilineIcED0Ev, symObjAddr: 0x27B30, symBinAddr: 0x285F0, symSize: 0x40 }
  - { offset: 0x13D1E4, size: 0x8, addend: 0x0, symName: __ZNSt3__120__l_anchor_multilineIcED0Ev, symObjAddr: 0x27B30, symBinAddr: 0x285F0, symSize: 0x40 }
  - { offset: 0x13D210, size: 0x8, addend: 0x0, symName: __ZNKSt3__120__l_anchor_multilineIcE6__execERNS_7__stateIcEE, symObjAddr: 0x27B70, symBinAddr: 0x28630, symSize: 0x60 }
  - { offset: 0x13D275, size: 0x8, addend: 0x0, symName: __ZNSt3__120__r_anchor_multilineIcED1Ev, symObjAddr: 0x27BD0, symBinAddr: 0x28690, symSize: 0x30 }
  - { offset: 0x13D303, size: 0x8, addend: 0x0, symName: __ZNSt3__120__r_anchor_multilineIcED0Ev, symObjAddr: 0x27C00, symBinAddr: 0x286C0, symSize: 0x40 }
  - { offset: 0x13D334, size: 0x8, addend: 0x0, symName: __ZNSt3__120__r_anchor_multilineIcED0Ev, symObjAddr: 0x27C00, symBinAddr: 0x286C0, symSize: 0x40 }
  - { offset: 0x13D354, size: 0x8, addend: 0x0, symName: __ZNSt3__120__r_anchor_multilineIcED0Ev, symObjAddr: 0x27C00, symBinAddr: 0x286C0, symSize: 0x40 }
  - { offset: 0x13D374, size: 0x8, addend: 0x0, symName: __ZNSt3__120__r_anchor_multilineIcED0Ev, symObjAddr: 0x27C00, symBinAddr: 0x286C0, symSize: 0x40 }
  - { offset: 0x13D3A0, size: 0x8, addend: 0x0, symName: __ZNKSt3__120__r_anchor_multilineIcE6__execERNS_7__stateIcEE, symObjAddr: 0x27C40, symBinAddr: 0x28700, symSize: 0x60 }
  - { offset: 0x13D42F, size: 0x8, addend: 0x0, symName: __ZNSt3__115__word_boundaryIcNS_12regex_traitsIcEEED1Ev, symObjAddr: 0x27CA0, symBinAddr: 0x28760, symSize: 0x50 }
  - { offset: 0x13D4FB, size: 0x8, addend: 0x0, symName: __ZNSt3__115__word_boundaryIcNS_12regex_traitsIcEEED0Ev, symObjAddr: 0x27CF0, symBinAddr: 0x287B0, symSize: 0x50 }
  - { offset: 0x13D648, size: 0x8, addend: 0x0, symName: __ZNKSt3__115__word_boundaryIcNS_12regex_traitsIcEEE6__execERNS_7__stateIcEE, symObjAddr: 0x27D40, symBinAddr: 0x28800, symSize: 0x100 }
  - { offset: 0x13D83E, size: 0x8, addend: 0x0, symName: __ZNSt3__111__lookaheadIcNS_12regex_traitsIcEEED1Ev, symObjAddr: 0x27E40, symBinAddr: 0x28900, symSize: 0x90 }
  - { offset: 0x13D9FF, size: 0x8, addend: 0x0, symName: __ZNSt3__111__lookaheadIcNS_12regex_traitsIcEEED0Ev, symObjAddr: 0x27ED0, symBinAddr: 0x28990, symSize: 0x90 }
  - { offset: 0x13DC93, size: 0x8, addend: 0x0, symName: __ZNKSt3__111__lookaheadIcNS_12regex_traitsIcEEE6__execERNS_7__stateIcEE, symObjAddr: 0x27F60, symBinAddr: 0x28A20, symSize: 0x1A0 }
  - { offset: 0x13E2A4, size: 0x8, addend: 0x0, symName: __ZNSt3__16vectorINS_9sub_matchIPKcEENS_9allocatorIS4_EEE6assignEmRKS4_, symObjAddr: 0x285F0, symBinAddr: 0x290B0, symSize: 0x220 }
  - { offset: 0x13E9A5, size: 0x8, addend: 0x0, symName: __ZNKSt3__111basic_regexIcNS_12regex_traitsIcEEE21__match_at_start_ecmaINS_9allocatorINS_9sub_matchIPKcEEEEEEbS8_S8_RNS_13match_resultsIS8_T_EENS_15regex_constants15match_flag_typeEb, symObjAddr: 0x28100, symBinAddr: 0x28BC0, symSize: 0x4F0 }
  - { offset: 0x140362, size: 0x8, addend: 0x0, symName: __ZNSt3__16vectorINS_7__stateIcEENS_9allocatorIS2_EEE21__push_back_slow_pathIS2_EEPS2_OT_, symObjAddr: 0x28980, symBinAddr: 0x29440, symSize: 0x1D0 }
  - { offset: 0x140B89, size: 0x8, addend: 0x0, symName: __ZNSt3__16vectorINS_9sub_matchIPKcEENS_9allocatorIS4_EEE8__appendEmRKS4_, symObjAddr: 0x28D50, symBinAddr: 0x29810, symSize: 0x1A0 }
  - { offset: 0x141096, size: 0x8, addend: 0x0, symName: __ZNSt3__16vectorINS_4pairImPKcEENS_9allocatorIS4_EEE8__appendEm, symObjAddr: 0x28EF0, symBinAddr: 0x299B0, symSize: 0x140 }
  - { offset: 0x141572, size: 0x8, addend: 0x0, symName: __ZNSt3__17__stateIcEC2ERKS1_, symObjAddr: 0x29040, symBinAddr: 0x29B00, symSize: 0x1A0 }
  - { offset: 0x141C5E, size: 0x8, addend: 0x0, symName: __ZNSt3__17__stateIcED1Ev, symObjAddr: 0x28820, symBinAddr: 0x292E0, symSize: 0x40 }
  - { offset: 0x141F42, size: 0x8, addend: 0x0, symName: __ZNSt3__16vectorINS_7__stateIcEENS_9allocatorIS2_EEED1B8ne190102Ev, symObjAddr: 0x28900, symBinAddr: 0x293C0, symSize: 0x80 }
  - { offset: 0x14266B, size: 0x8, addend: 0x0, symName: __ZNKSt3__16vectorINS_9sub_matchIPKcEENS_9allocatorIS4_EEE20__throw_length_errorB8ne190102Ev, symObjAddr: 0x28810, symBinAddr: 0x292D0, symSize: 0x10 }
  - { offset: 0x142695, size: 0x8, addend: 0x0, symName: __ZNSt3__17__stateIcED1Ev, symObjAddr: 0x28820, symBinAddr: 0x292E0, symSize: 0x40 }
  - { offset: 0x142922, size: 0x8, addend: 0x0, symName: __ZNSt3__16vectorINS_7__stateIcEENS_9allocatorIS2_EEE26__swap_out_circular_bufferERNS_14__split_bufferIS2_RS4_EE, symObjAddr: 0x28B50, symBinAddr: 0x29610, symSize: 0x170 }
  - { offset: 0x142F4F, size: 0x8, addend: 0x0, symName: __ZNKSt3__16vectorINS_7__stateIcEENS_9allocatorIS2_EEE20__throw_length_errorB8ne190102Ev, symObjAddr: 0x28D40, symBinAddr: 0x29800, symSize: 0x10 }
  - { offset: 0x142F79, size: 0x8, addend: 0x0, symName: __ZNSt3__16vectorINS_9sub_matchIPKcEENS_9allocatorIS4_EEE8__appendEmRKS4_, symObjAddr: 0x28D50, symBinAddr: 0x29810, symSize: 0x1A0 }
  - { offset: 0x142F84, size: 0x8, addend: 0x0, symName: __ZNSt3__114__split_bufferINS_7__stateIcEERNS_9allocatorIS2_EEED1Ev, symObjAddr: 0x28CC0, symBinAddr: 0x29780, symSize: 0x80 }
  - { offset: 0x143845, size: 0x8, addend: 0x0, symName: __ZNKSt3__16vectorINS_4pairImPKcEENS_9allocatorIS4_EEE20__throw_length_errorB8ne190102Ev, symObjAddr: 0x29030, symBinAddr: 0x29AF0, symSize: 0x10 }
  - { offset: 0x14386F, size: 0x8, addend: 0x0, symName: __ZNSt3__17__stateIcEC2ERKS1_, symObjAddr: 0x29040, symBinAddr: 0x29B00, symSize: 0x1A0 }
  - { offset: 0x143CA8, size: 0x8, addend: 0x0, symName: __ZNSt3__111basic_regexIcNS_12regex_traitsIcEEE11__push_charEc, symObjAddr: 0x29E00, symBinAddr: 0x2A8C0, symSize: 0x140 }
  - { offset: 0x14408E, size: 0x8, addend: 0x0, symName: __ZNSt3__111basic_regexIcNS_12regex_traitsIcEEE15__push_back_refEi, symObjAddr: 0x29F90, symBinAddr: 0x2AA50, symSize: 0xD0 }
  - { offset: 0x144311, size: 0x8, addend: 0x0, symName: __ZNSt3__111basic_regexIcNS_12regex_traitsIcEEE30__parse_character_class_escapeINS_11__wrap_iterIPKcEEEET_S9_S9_, symObjAddr: 0x296F0, symBinAddr: 0x2A1B0, symSize: 0x2E0 }
  - { offset: 0x144922, size: 0x8, addend: 0x0, symName: __ZNSt3__111basic_regexIcNS_12regex_traitsIcEEE24__parse_character_escapeINS_11__wrap_iterIPKcEEEET_S9_S9_PNS_12basic_stringIcNS_11char_traitsIcEENS_9allocatorIcEEEE, symObjAddr: 0x299D0, symBinAddr: 0x2A490, symSize: 0x430 }
  - { offset: 0x144FC3, size: 0x8, addend: 0x0, symName: __ZNSt3__120__bracket_expressionIcNS_12regex_traitsIcEEEC2B8ne190102ERKS2_PNS_6__nodeIcEEbbb, symObjAddr: 0x2A800, symBinAddr: 0x2B2C0, symSize: 0x1A0 }
  - { offset: 0x14575E, size: 0x8, addend: 0x0, symName: __ZNSt3__120__bracket_expressionIcNS_12regex_traitsIcEEE10__add_charB8ne190102Ec, symObjAddr: 0x2A680, symBinAddr: 0x2B140, symSize: 0x180 }
  - { offset: 0x145A52, size: 0x8, addend: 0x0, symName: __ZNSt3__111basic_regexIcNS_12regex_traitsIcEEE23__parse_expression_termINS_11__wrap_iterIPKcEEEET_S9_S9_PNS_20__bracket_expressionIcS2_EE, symObjAddr: 0x2BB00, symBinAddr: 0x2C5C0, symSize: 0x420 }
  - { offset: 0x146B5C, size: 0x8, addend: 0x0, symName: __ZNSt3__123__match_any_but_newlineIcED1Ev, symObjAddr: 0x29630, symBinAddr: 0x2A0F0, symSize: 0x30 }
  - { offset: 0x146BEA, size: 0x8, addend: 0x0, symName: __ZNSt3__123__match_any_but_newlineIcED0Ev, symObjAddr: 0x29660, symBinAddr: 0x2A120, symSize: 0x40 }
  - { offset: 0x146C1B, size: 0x8, addend: 0x0, symName: __ZNSt3__123__match_any_but_newlineIcED0Ev, symObjAddr: 0x29660, symBinAddr: 0x2A120, symSize: 0x40 }
  - { offset: 0x146C3B, size: 0x8, addend: 0x0, symName: __ZNSt3__123__match_any_but_newlineIcED0Ev, symObjAddr: 0x29660, symBinAddr: 0x2A120, symSize: 0x40 }
  - { offset: 0x146C5B, size: 0x8, addend: 0x0, symName: __ZNSt3__123__match_any_but_newlineIcED0Ev, symObjAddr: 0x29660, symBinAddr: 0x2A120, symSize: 0x40 }
  - { offset: 0x1470AA, size: 0x8, addend: 0x0, symName: __ZNSt3__118__match_char_icaseIcNS_12regex_traitsIcEEED1Ev, symObjAddr: 0x2A060, symBinAddr: 0x2AB20, symSize: 0x50 }
  - { offset: 0x147176, size: 0x8, addend: 0x0, symName: __ZNSt3__118__match_char_icaseIcNS_12regex_traitsIcEEED0Ev, symObjAddr: 0x2A0B0, symBinAddr: 0x2AB70, symSize: 0x50 }
  - { offset: 0x14724B, size: 0x8, addend: 0x0, symName: __ZNKSt3__118__match_char_icaseIcNS_12regex_traitsIcEEE6__execERNS_7__stateIcEE, symObjAddr: 0x2A100, symBinAddr: 0x2ABC0, symSize: 0x50 }
  - { offset: 0x14730B, size: 0x8, addend: 0x0, symName: __ZNSt3__120__match_char_collateIcNS_12regex_traitsIcEEED1Ev, symObjAddr: 0x2A150, symBinAddr: 0x2AC10, symSize: 0x50 }
  - { offset: 0x1473D7, size: 0x8, addend: 0x0, symName: __ZNSt3__120__match_char_collateIcNS_12regex_traitsIcEEED0Ev, symObjAddr: 0x2A1A0, symBinAddr: 0x2AC60, symSize: 0x50 }
  - { offset: 0x1474AC, size: 0x8, addend: 0x0, symName: __ZNKSt3__120__match_char_collateIcNS_12regex_traitsIcEEE6__execERNS_7__stateIcEE, symObjAddr: 0x2A1F0, symBinAddr: 0x2ACB0, symSize: 0x40 }
  - { offset: 0x14751C, size: 0x8, addend: 0x0, symName: __ZNSt3__112__match_charIcED1Ev, symObjAddr: 0x2A230, symBinAddr: 0x2ACF0, symSize: 0x30 }
  - { offset: 0x1475AA, size: 0x8, addend: 0x0, symName: __ZNSt3__112__match_charIcED0Ev, symObjAddr: 0x2A260, symBinAddr: 0x2AD20, symSize: 0x40 }
  - { offset: 0x1475DB, size: 0x8, addend: 0x0, symName: __ZNSt3__112__match_charIcED0Ev, symObjAddr: 0x2A260, symBinAddr: 0x2AD20, symSize: 0x40 }
  - { offset: 0x1475FB, size: 0x8, addend: 0x0, symName: __ZNSt3__112__match_charIcED0Ev, symObjAddr: 0x2A260, symBinAddr: 0x2AD20, symSize: 0x40 }
  - { offset: 0x14761B, size: 0x8, addend: 0x0, symName: __ZNSt3__112__match_charIcED0Ev, symObjAddr: 0x2A260, symBinAddr: 0x2AD20, symSize: 0x40 }
  - { offset: 0x147647, size: 0x8, addend: 0x0, symName: __ZNKSt3__112__match_charIcE6__execERNS_7__stateIcEE, symObjAddr: 0x2A2A0, symBinAddr: 0x2AD60, symSize: 0x40 }
  - { offset: 0x1476B7, size: 0x8, addend: 0x0, symName: __ZNSt3__116__back_ref_icaseIcNS_12regex_traitsIcEEED1Ev, symObjAddr: 0x2A2E0, symBinAddr: 0x2ADA0, symSize: 0x50 }
  - { offset: 0x147783, size: 0x8, addend: 0x0, symName: __ZNSt3__116__back_ref_icaseIcNS_12regex_traitsIcEEED0Ev, symObjAddr: 0x2A330, symBinAddr: 0x2ADF0, symSize: 0x50 }
  - { offset: 0x147858, size: 0x8, addend: 0x0, symName: __ZNKSt3__116__back_ref_icaseIcNS_12regex_traitsIcEEE6__execERNS_7__stateIcEE, symObjAddr: 0x2A380, symBinAddr: 0x2AE40, symSize: 0xC0 }
  - { offset: 0x1479D8, size: 0x8, addend: 0x0, symName: __ZNSt3__118__back_ref_collateIcNS_12regex_traitsIcEEED1Ev, symObjAddr: 0x2A440, symBinAddr: 0x2AF00, symSize: 0x50 }
  - { offset: 0x147AA4, size: 0x8, addend: 0x0, symName: __ZNSt3__118__back_ref_collateIcNS_12regex_traitsIcEEED0Ev, symObjAddr: 0x2A490, symBinAddr: 0x2AF50, symSize: 0x50 }
  - { offset: 0x147B79, size: 0x8, addend: 0x0, symName: __ZNKSt3__118__back_ref_collateIcNS_12regex_traitsIcEEE6__execERNS_7__stateIcEE, symObjAddr: 0x2A4E0, symBinAddr: 0x2AFA0, symSize: 0x80 }
  - { offset: 0x147C5B, size: 0x8, addend: 0x0, symName: __ZNSt3__110__back_refIcED1Ev, symObjAddr: 0x2A560, symBinAddr: 0x2B020, symSize: 0x30 }
  - { offset: 0x147CE9, size: 0x8, addend: 0x0, symName: __ZNSt3__110__back_refIcED0Ev, symObjAddr: 0x2A590, symBinAddr: 0x2B050, symSize: 0x40 }
  - { offset: 0x147D1A, size: 0x8, addend: 0x0, symName: __ZNSt3__110__back_refIcED0Ev, symObjAddr: 0x2A590, symBinAddr: 0x2B050, symSize: 0x40 }
  - { offset: 0x147D3A, size: 0x8, addend: 0x0, symName: __ZNSt3__110__back_refIcED0Ev, symObjAddr: 0x2A590, symBinAddr: 0x2B050, symSize: 0x40 }
  - { offset: 0x147D5A, size: 0x8, addend: 0x0, symName: __ZNSt3__110__back_refIcED0Ev, symObjAddr: 0x2A590, symBinAddr: 0x2B050, symSize: 0x40 }
  - { offset: 0x147D8C, size: 0x8, addend: 0x0, symName: __ZNKSt3__110__back_refIcE6__execERNS_7__stateIcEE, symObjAddr: 0x2A5D0, symBinAddr: 0x2B090, symSize: 0xB0 }
  - { offset: 0x14817D, size: 0x8, addend: 0x0, symName: __ZNSt3__16vectorINS_4pairINS_12basic_stringIcNS_11char_traitsIcEENS_9allocatorIcEEEES7_EENS5_IS8_EEED1B8ne190102Ev, symObjAddr: 0x2A9A0, symBinAddr: 0x2B460, symSize: 0x90 }
  - { offset: 0x1486E8, size: 0x8, addend: 0x0, symName: __ZNSt3__120__bracket_expressionIcNS_12regex_traitsIcEEED1Ev, symObjAddr: 0x2AA30, symBinAddr: 0x2B4F0, symSize: 0x10 }
  - { offset: 0x148720, size: 0x8, addend: 0x0, symName: __ZNSt3__120__bracket_expressionIcNS_12regex_traitsIcEEED2Ev, symObjAddr: 0x2B4B0, symBinAddr: 0x2BF70, symSize: 0x150 }
  - { offset: 0x1492A7, size: 0x8, addend: 0x0, symName: __ZNSt3__120__bracket_expressionIcNS_12regex_traitsIcEEED0Ev, symObjAddr: 0x2AA40, symBinAddr: 0x2B500, symSize: 0x20 }
  - { offset: 0x149744, size: 0x8, addend: 0x0, symName: __ZNKSt3__120__bracket_expressionIcNS_12regex_traitsIcEEE6__execERNS_7__stateIcEE, symObjAddr: 0x2AA60, symBinAddr: 0x2B520, symSize: 0xA10 }
  - { offset: 0x14B4E0, size: 0x8, addend: 0x0, symName: __ZNKSt3__112regex_traitsIcE20__lookup_collatenameIPcEENS_12basic_stringIcNS_11char_traitsIcEENS_9allocatorIcEEEET_SA_c, symObjAddr: 0x2B710, symBinAddr: 0x2C1D0, symSize: 0x220 }
  - { offset: 0x14C237, size: 0x8, addend: 0x0, symName: __ZNKSt3__112regex_traitsIcE9transformIPcEENS_12basic_stringIcNS_11char_traitsIcEENS_9allocatorIcEEEET_SA_, symObjAddr: 0x2B600, symBinAddr: 0x2C0C0, symSize: 0x110 }
  - { offset: 0x14C934, size: 0x8, addend: 0x0, symName: __ZNKSt3__112regex_traitsIcE19__transform_primaryIPcEENS_12basic_stringIcNS_11char_traitsIcEENS_9allocatorIcEEEET_SA_c, symObjAddr: 0x2B930, symBinAddr: 0x2C3F0, symSize: 0x180 }
  - { offset: 0x14D182, size: 0x8, addend: 0x0, symName: __ZNSt3__14pairINS_12basic_stringIcNS_11char_traitsIcEENS_9allocatorIcEEEES6_ED1Ev, symObjAddr: 0x2B470, symBinAddr: 0x2BF30, symSize: 0x40 }
  - { offset: 0x14D47C, size: 0x8, addend: 0x0, symName: __ZNSt3__111basic_regexIcNS_12regex_traitsIcEEE25__parse_equivalence_classINS_11__wrap_iterIPKcEEEET_S9_S9_PNS_20__bracket_expressionIcS2_EE, symObjAddr: 0x2BF20, symBinAddr: 0x2C9E0, symSize: 0x250 }
  - { offset: 0x14E0E5, size: 0x8, addend: 0x0, symName: __ZNSt3__111basic_regexIcNS_12regex_traitsIcEEE18__parse_awk_escapeINS_11__wrap_iterIPKcEEEET_S9_S9_PNS_12basic_stringIcNS_11char_traitsIcEENS_9allocatorIcEEEE, symObjAddr: 0x2C470, symBinAddr: 0x2CF30, symSize: 0x2E0 }
  - { offset: 0x14E263, size: 0x8, addend: 0x0, symName: __ZNSt3__111basic_regexIcNS_12regex_traitsIcEEE23__parse_character_classINS_11__wrap_iterIPKcEEEET_S9_S9_PNS_20__bracket_expressionIcS2_EE, symObjAddr: 0x2C170, symBinAddr: 0x2CC30, symSize: 0x90 }
  - { offset: 0x14E5C8, size: 0x8, addend: 0x0, symName: __ZNSt3__111basic_regexIcNS_12regex_traitsIcEEE24__parse_collating_symbolINS_11__wrap_iterIPKcEEEET_S9_S9_RNS_12basic_stringIcNS_11char_traitsIcEENS_9allocatorIcEEEE, symObjAddr: 0x2C200, symBinAddr: 0x2CCC0, symSize: 0xD0 }
  - { offset: 0x14EA49, size: 0x8, addend: 0x0, symName: __ZNSt3__111basic_regexIcNS_12regex_traitsIcEEE20__parse_class_escapeINS_11__wrap_iterIPKcEEEET_S9_S9_RNS_12basic_stringIcNS_11char_traitsIcEENS_9allocatorIcEEEEPNS_20__bracket_expressionIcS2_EE, symObjAddr: 0x2C2D0, symBinAddr: 0x2CD90, symSize: 0x1A0 }
  - { offset: 0x14EC3F, size: 0x8, addend: 0x0, symName: __ZNSt3__120__bracket_expressionIcNS_12regex_traitsIcEEE13__add_digraphB8ne190102Ecc, symObjAddr: 0x2CDC0, symBinAddr: 0x2D880, symSize: 0x1E0 }
  - { offset: 0x14F28B, size: 0x8, addend: 0x0, symName: __ZNSt3__119__throw_regex_errorB8ne190102ILNS_15regex_constants10error_typeE1EEEvv, symObjAddr: 0x2CFA0, symBinAddr: 0x2DA60, symSize: 0x50 }
  - { offset: 0x14F296, size: 0x8, addend: 0x0, symName: __ZNSt3__120__bracket_expressionIcNS_12regex_traitsIcEEE11__add_rangeB8ne190102ENS_12basic_stringIcNS_11char_traitsIcEENS_9allocatorIcEEEES9_, symObjAddr: 0x2C750, symBinAddr: 0x2D210, symSize: 0x670 }
  - { offset: 0x1513A1, size: 0x8, addend: 0x0, symName: __ZNKSt3__112regex_traitsIcE20__lookup_collatenameINS_11__wrap_iterIPKcEEEENS_12basic_stringIcNS_11char_traitsIcEENS_9allocatorIcEEEET_SD_c, symObjAddr: 0x2CFF0, symBinAddr: 0x2DAB0, symSize: 0x220 }
  - { offset: 0x15210D, size: 0x8, addend: 0x0, symName: __ZNKSt3__112regex_traitsIcE19__transform_primaryINS_11__wrap_iterIPcEEEENS_12basic_stringIcNS_11char_traitsIcEENS_9allocatorIcEEEET_SC_c, symObjAddr: 0x2D210, symBinAddr: 0x2DCD0, symSize: 0x180 }
  - { offset: 0x152970, size: 0x8, addend: 0x0, symName: __ZNSt3__16vectorINS_12basic_stringIcNS_11char_traitsIcEENS_9allocatorIcEEEENS4_IS6_EEE21__push_back_slow_pathIRKS6_EEPS6_OT_, symObjAddr: 0x2D390, symBinAddr: 0x2DE50, symSize: 0x180 }
  - { offset: 0x152EF2, size: 0x8, addend: 0x0, symName: __ZNKSt3__112regex_traitsIcE18__lookup_classnameINS_11__wrap_iterIPKcEEEEjT_S7_bc, symObjAddr: 0x2D5D0, symBinAddr: 0x2E090, symSize: 0x120 }
  - { offset: 0x153709, size: 0x8, addend: 0x0, symName: __ZNSt3__120__bracket_expressionIcNS_12regex_traitsIcEEE14__add_neg_charB8ne190102Ec, symObjAddr: 0x2D6F0, symBinAddr: 0x2E1B0, symSize: 0x180 }
  - { offset: 0x153DC8, size: 0x8, addend: 0x0, symName: __ZNKSt3__112regex_traitsIcE9transformINS_11__wrap_iterIPcEEEENS_12basic_stringIcNS_11char_traitsIcEENS_9allocatorIcEEEET_SC_, symObjAddr: 0x2D870, symBinAddr: 0x2E330, symSize: 0x110 }
  - { offset: 0x1544FC, size: 0x8, addend: 0x0, symName: __ZNKSt3__16vectorINS_4pairINS_12basic_stringIcNS_11char_traitsIcEENS_9allocatorIcEEEES7_EENS5_IS8_EEE20__throw_length_errorB8ne190102Ev, symObjAddr: 0x2D9D0, symBinAddr: 0x2E490, symSize: 0x10 }
  - { offset: 0x154526, size: 0x8, addend: 0x0, symName: __ZNKSt3__16vectorINS_4pairIccEENS_9allocatorIS2_EEE20__throw_length_errorB8ne190102Ev, symObjAddr: 0x2D9E0, symBinAddr: 0x2E4A0, symSize: 0x10 }
  - { offset: 0x154804, size: 0x8, addend: 0x0, symName: __ZNKSt3__16vectorINS_4pairIccEENS_9allocatorIS2_EEE20__throw_length_errorB8ne190102Ev, symObjAddr: 0x2D9E0, symBinAddr: 0x2E4A0, symSize: 0x10 }
  - { offset: 0x15482E, size: 0x8, addend: 0x0, symName: __ZNSt3__128__begin_marked_subexpressionIcED1Ev, symObjAddr: 0x2D9F0, symBinAddr: 0x2E4B0, symSize: 0x30 }
  - { offset: 0x154A7A, size: 0x8, addend: 0x0, symName: __ZNSt3__114__split_bufferINS_12basic_stringIcNS_11char_traitsIcEENS_9allocatorIcEEEERNS4_IS6_EEED1Ev, symObjAddr: 0x2D510, symBinAddr: 0x2DFD0, symSize: 0x60 }
  - { offset: 0x154DBA, size: 0x8, addend: 0x0, symName: __ZNSt3__128__begin_marked_subexpressionIcED1Ev, symObjAddr: 0x2D9F0, symBinAddr: 0x2E4B0, symSize: 0x30 }
  - { offset: 0x154E48, size: 0x8, addend: 0x0, symName: __ZNSt3__128__begin_marked_subexpressionIcED0Ev, symObjAddr: 0x2DA20, symBinAddr: 0x2E4E0, symSize: 0x40 }
  - { offset: 0x154E79, size: 0x8, addend: 0x0, symName: __ZNSt3__128__begin_marked_subexpressionIcED0Ev, symObjAddr: 0x2DA20, symBinAddr: 0x2E4E0, symSize: 0x40 }
  - { offset: 0x154E99, size: 0x8, addend: 0x0, symName: __ZNSt3__128__begin_marked_subexpressionIcED0Ev, symObjAddr: 0x2DA20, symBinAddr: 0x2E4E0, symSize: 0x40 }
  - { offset: 0x154EB9, size: 0x8, addend: 0x0, symName: __ZNSt3__128__begin_marked_subexpressionIcED0Ev, symObjAddr: 0x2DA20, symBinAddr: 0x2E4E0, symSize: 0x40 }
  - { offset: 0x154EE5, size: 0x8, addend: 0x0, symName: __ZNKSt3__128__begin_marked_subexpressionIcE6__execERNS_7__stateIcEE, symObjAddr: 0x2DA60, symBinAddr: 0x2E520, symSize: 0x30 }
  - { offset: 0x154F7E, size: 0x8, addend: 0x0, symName: __ZNSt3__126__end_marked_subexpressionIcED1Ev, symObjAddr: 0x2DA90, symBinAddr: 0x2E550, symSize: 0x30 }
  - { offset: 0x15500C, size: 0x8, addend: 0x0, symName: __ZNSt3__126__end_marked_subexpressionIcED0Ev, symObjAddr: 0x2DAC0, symBinAddr: 0x2E580, symSize: 0x40 }
  - { offset: 0x15503D, size: 0x8, addend: 0x0, symName: __ZNSt3__126__end_marked_subexpressionIcED0Ev, symObjAddr: 0x2DAC0, symBinAddr: 0x2E580, symSize: 0x40 }
  - { offset: 0x15505D, size: 0x8, addend: 0x0, symName: __ZNSt3__126__end_marked_subexpressionIcED0Ev, symObjAddr: 0x2DAC0, symBinAddr: 0x2E580, symSize: 0x40 }
  - { offset: 0x15507D, size: 0x8, addend: 0x0, symName: __ZNSt3__126__end_marked_subexpressionIcED0Ev, symObjAddr: 0x2DAC0, symBinAddr: 0x2E580, symSize: 0x40 }
  - { offset: 0x1550A9, size: 0x8, addend: 0x0, symName: __ZNKSt3__126__end_marked_subexpressionIcE6__execERNS_7__stateIcEE, symObjAddr: 0x2DB00, symBinAddr: 0x2E5C0, symSize: 0x30 }
  - { offset: 0x1553DC, size: 0x8, addend: 0x0, symName: __ZNSt3__16__loopIcED0Ev, symObjAddr: 0x2DD70, symBinAddr: 0x2E830, symSize: 0x60 }
  - { offset: 0x1554D5, size: 0x8, addend: 0x0, symName: __ZNSt3__16__loopIcED1Ev, symObjAddr: 0x2DD20, symBinAddr: 0x2E7E0, symSize: 0x50 }
  - { offset: 0x155606, size: 0x8, addend: 0x0, symName: __ZNKSt3__16__loopIcE6__execERNS_7__stateIcEE, symObjAddr: 0x2DDD0, symBinAddr: 0x2E890, symSize: 0x260 }
  - { offset: 0x15577E, size: 0x8, addend: 0x0, symName: __ZNKSt3__16__loopIcE12__exec_splitEbRNS_7__stateIcEE, symObjAddr: 0x2E030, symBinAddr: 0x2EAF0, symSize: 0xF0 }
  - { offset: 0x155872, size: 0x8, addend: 0x0, symName: __ZNSt3__117__owns_two_statesIcED1Ev, symObjAddr: 0x2E120, symBinAddr: 0x2EBE0, symSize: 0x50 }
  - { offset: 0x155909, size: 0x8, addend: 0x0, symName: __ZNSt3__117__owns_two_statesIcED0Ev, symObjAddr: 0x2E170, symBinAddr: 0x2EC30, symSize: 0x60 }
  - { offset: 0x1559A9, size: 0x8, addend: 0x0, symName: __ZNSt3__117__repeat_one_loopIcED1Ev, symObjAddr: 0x2E1D0, symBinAddr: 0x2EC90, symSize: 0x10 }
  - { offset: 0x1559D5, size: 0x8, addend: 0x0, symName: __ZNSt3__117__repeat_one_loopIcED0Ev, symObjAddr: 0x2E1E0, symBinAddr: 0x2ECA0, symSize: 0x10 }
  - { offset: 0x155A01, size: 0x8, addend: 0x0, symName: __ZNKSt3__117__repeat_one_loopIcE6__execERNS_7__stateIcEE, symObjAddr: 0x2E1F0, symBinAddr: 0x2ECB0, symSize: 0x20 }
  - { offset: 0x155A71, size: 0x8, addend: 0x0, symName: __ZNSt3__111__alternateIcED1Ev, symObjAddr: 0x2E210, symBinAddr: 0x2ECD0, symSize: 0x50 }
  - { offset: 0x155B2C, size: 0x8, addend: 0x0, symName: __ZNSt3__111__alternateIcED0Ev, symObjAddr: 0x2E260, symBinAddr: 0x2ED20, symSize: 0x60 }
  - { offset: 0x155BEE, size: 0x8, addend: 0x0, symName: __ZNKSt3__111__alternateIcE6__execERNS_7__stateIcEE, symObjAddr: 0x2E2C0, symBinAddr: 0x2ED80, symSize: 0x10 }
  - { offset: 0x155C22, size: 0x8, addend: 0x0, symName: __ZNKSt3__111__alternateIcE12__exec_splitEbRNS_7__stateIcEE, symObjAddr: 0x2E2D0, symBinAddr: 0x2ED90, symSize: 0x20 }
  - { offset: 0x155C71, size: 0x8, addend: 0x0, symName: __ZNSt3__121__empty_non_own_stateIcED1Ev, symObjAddr: 0x2E2F0, symBinAddr: 0x2EDB0, symSize: 0x10 }
  - { offset: 0x155C9D, size: 0x8, addend: 0x0, symName: __ZNSt3__121__empty_non_own_stateIcED0Ev, symObjAddr: 0x2E300, symBinAddr: 0x2EDC0, symSize: 0x10 }
  - { offset: 0x155CC9, size: 0x8, addend: 0x0, symName: __ZNKSt3__121__empty_non_own_stateIcE6__execERNS_7__stateIcEE, symObjAddr: 0x2E310, symBinAddr: 0x2EDD0, symSize: 0x20 }
  - { offset: 0x155E20, size: 0x8, addend: 0x0, symName: __ZNSt3__111basic_regexIcNS_12regex_traitsIcEEE32__parse_one_char_or_coll_elem_REINS_11__wrap_iterIPKcEEEET_S9_S9_, symObjAddr: 0x2E7C0, symBinAddr: 0x2F280, symSize: 0xE0 }
  - { offset: 0x156258, size: 0x8, addend: 0x0, symName: __ZNSt3__111__match_anyIcED1Ev, symObjAddr: 0x2E8A0, symBinAddr: 0x2F360, symSize: 0x30 }
  - { offset: 0x1562E6, size: 0x8, addend: 0x0, symName: __ZNSt3__111__match_anyIcED0Ev, symObjAddr: 0x2E8D0, symBinAddr: 0x2F390, symSize: 0x40 }
  - { offset: 0x156317, size: 0x8, addend: 0x0, symName: __ZNSt3__111__match_anyIcED0Ev, symObjAddr: 0x2E8D0, symBinAddr: 0x2F390, symSize: 0x40 }
  - { offset: 0x156337, size: 0x8, addend: 0x0, symName: __ZNSt3__111__match_anyIcED0Ev, symObjAddr: 0x2E8D0, symBinAddr: 0x2F390, symSize: 0x40 }
  - { offset: 0x156357, size: 0x8, addend: 0x0, symName: __ZNSt3__111__match_anyIcED0Ev, symObjAddr: 0x2E8D0, symBinAddr: 0x2F390, symSize: 0x40 }
  - { offset: 0x156383, size: 0x8, addend: 0x0, symName: __ZNKSt3__111__match_anyIcE6__execERNS_7__stateIcEE, symObjAddr: 0x2E910, symBinAddr: 0x2F3D0, symSize: 0x40 }
  - { offset: 0x1563D6, size: 0x8, addend: 0x0, symName: __ZNSt3__111basic_regexIcNS_12regex_traitsIcEEE15__test_back_refEc, symObjAddr: 0x2E950, symBinAddr: 0x2F410, symSize: 0x50 }
  - { offset: 0x15650E, size: 0x8, addend: 0x0, symName: __ZNSt3__111basic_regexIcNS_12regex_traitsIcEEE20__parse_ORD_CHAR_EREINS_11__wrap_iterIPKcEEEET_S9_S9_, symObjAddr: 0x2EC00, symBinAddr: 0x2F6C0, symSize: 0x1C0 }
  - { offset: 0x1565AE, size: 0x8, addend: 0x0, symName: __ZNSt3__111basic_regexIcNS_12regex_traitsIcEEE23__parse_QUOTED_CHAR_EREINS_11__wrap_iterIPKcEEEET_S9_S9_, symObjAddr: 0x2EDC0, symBinAddr: 0x2F880, symSize: 0x200 }
  - { offset: 0x1567F2, size: 0x8, addend: 0x0, symName: __ZNKSt3__111basic_regexIcNS_12regex_traitsIcEEE27__match_at_start_posix_subsINS_9allocatorINS_9sub_matchIPKcEEEEEEbS8_S8_RNS_13match_resultsIS8_T_EENS_15regex_constants15match_flag_typeEb, symObjAddr: 0x2FEF0, symBinAddr: 0x309B0, symSize: 0x6F0 }
  - { offset: 0x15885D, size: 0x8, addend: 0x0, symName: __ZNKSt3__111basic_regexIcNS_12regex_traitsIcEEE29__match_at_start_posix_nosubsINS_9allocatorINS_9sub_matchIPKcEEEEEEbS8_S8_RNS_13match_resultsIS8_T_EENS_15regex_constants15match_flag_typeEb, symObjAddr: 0x2F4C0, symBinAddr: 0x2FF80, symSize: 0xA30 }
  - { offset: 0x15AC10, size: 0x8, addend: 0x0, symName: __ZNSt3__16vectorINS_9sub_matchINS_11__wrap_iterIPKcEEEENS_9allocatorIS6_EEE8__appendEm, symObjAddr: 0x31BC0, symBinAddr: 0x32680, symSize: 0x190 }
  - { offset: 0x15B5DE, size: 0x8, addend: 0x0, symName: __ZNSt3__15dequeINS_7__stateIcEENS_9allocatorIS2_EEE19__add_back_capacityEv, symObjAddr: 0x307A0, symBinAddr: 0x31260, symSize: 0x700 }
  - { offset: 0x15CDEC, size: 0x8, addend: 0x0, symName: __ZNSt3__15dequeINS_7__stateIcEENS_9allocatorIS2_EEE20__add_front_capacityEv, symObjAddr: 0x31250, symBinAddr: 0x31D10, symSize: 0x400 }
  - { offset: 0x15DD40, size: 0x8, addend: 0x0, symName: __ZNSt3__15dequeINS_7__stateIcEENS_9allocatorIS2_EEED1B8ne190102Ev, symObjAddr: 0x30730, symBinAddr: 0x311F0, symSize: 0x70 }
  - { offset: 0x15E104, size: 0x8, addend: 0x0, symName: __ZNSt3__16vectorINS_9sub_matchIPKcEENS_9allocatorIS4_EEE18__assign_with_sizeB8ne190102IPS4_S9_EEvT_T0_l, symObjAddr: 0x31820, symBinAddr: 0x322E0, symSize: 0x1F0 }
  - { offset: 0x15EA32, size: 0x8, addend: 0x0, symName: __ZNSt3__16vectorINS_4pairImPKcEENS_9allocatorIS4_EEE18__assign_with_sizeB8ne190102IPS4_S9_EEvT_T0_l, symObjAddr: 0x31A10, symBinAddr: 0x324D0, symSize: 0x1B0 }
  - { offset: 0x15F2DD, size: 0x8, addend: 0x0, symName: __ZNSt3__15dequeINS_7__stateIcEENS_9allocatorIS2_EEE5clearEv, symObjAddr: 0x305E0, symBinAddr: 0x310A0, symSize: 0x150 }
  - { offset: 0x15FE4C, size: 0x8, addend: 0x0, symName: __ZNSt3__114__split_bufferIPNS_7__stateIcEENS_9allocatorIS3_EEE9push_backEOS3_, symObjAddr: 0x30EA0, symBinAddr: 0x31960, symSize: 0x1E0 }
  - { offset: 0x160335, size: 0x8, addend: 0x0, symName: __ZNSt3__114__split_bufferIPNS_7__stateIcEENS_9allocatorIS3_EEE10push_frontEOS3_, symObjAddr: 0x31080, symBinAddr: 0x31B40, symSize: 0x1D0 }
  - { offset: 0x16089F, size: 0x8, addend: 0x0, symName: __ZNSt3__114__split_bufferIPNS_7__stateIcEENS_9allocatorIS3_EEE10push_frontERKS3_, symObjAddr: 0x31650, symBinAddr: 0x32110, symSize: 0x1D0 }
  - { offset: 0x1611B6, size: 0x8, addend: 0x0, symName: __ZNKSt3__16vectorINS_9sub_matchINS_11__wrap_iterIPKcEEEENS_9allocatorIS6_EEE20__throw_length_errorB8ne190102Ev, symObjAddr: 0x31D50, symBinAddr: 0x32810, symSize: 0x10 }
  - { offset: 0x1611E0, size: 0x8, addend: 0x0, symName: __ZNKSt3__112basic_stringIcNS_11char_traitsIcEENS_9allocatorIcEEE20__throw_out_of_rangeB8ne190102Ev, symObjAddr: 0x31D60, symBinAddr: 0x32820, symSize: 0x10 }
  - { offset: 0x161247, size: 0x8, addend: 0x0, symName: '__ZZ38whisper_vad_init_from_file_with_paramsEN3$_08__invokeEPvS0_m', symObjAddr: 0x31E80, symBinAddr: 0x32940, symSize: 0x20 }
  - { offset: 0x161308, size: 0x8, addend: 0x0, symName: '__ZZ38whisper_vad_init_from_file_with_paramsEN3$_18__invokeEPv', symObjAddr: 0x31EA0, symBinAddr: 0x32960, symSize: 0x20 }
  - { offset: 0x1613DD, size: 0x8, addend: 0x0, symName: '__ZZ38whisper_vad_init_from_file_with_paramsEN3$_28__invokeEPv', symObjAddr: 0x31EC0, symBinAddr: 0x32980, symSize: 0x40 }
  - { offset: 0x16148F, size: 0x8, addend: 0x0, symName: '__ZNSt3__110__function6__funcIZL24whisper_vad_init_contextP19whisper_vad_contextE3$_0NS_9allocatorIS4_EEFP11ggml_cgraphvEED1Ev', symObjAddr: 0x31F50, symBinAddr: 0x32A10, symSize: 0x10 }
  - { offset: 0x1614B8, size: 0x8, addend: 0x0, symName: '__ZNSt3__110__function6__funcIZL24whisper_vad_init_contextP19whisper_vad_contextE3$_0NS_9allocatorIS4_EEFP11ggml_cgraphvEED0Ev', symObjAddr: 0x31F60, symBinAddr: 0x32A20, symSize: 0x10 }
  - { offset: 0x1616BC, size: 0x8, addend: 0x0, symName: '__ZNKSt3__110__function6__funcIZL24whisper_vad_init_contextP19whisper_vad_contextE3$_0NS_9allocatorIS4_EEFP11ggml_cgraphvEE7__cloneEv', symObjAddr: 0x31F70, symBinAddr: 0x32A30, symSize: 0x30 }
  - { offset: 0x1619B2, size: 0x8, addend: 0x0, symName: '__ZNKSt3__110__function6__funcIZL24whisper_vad_init_contextP19whisper_vad_contextE3$_0NS_9allocatorIS4_EEFP11ggml_cgraphvEE7__cloneEPNS0_6__baseIS9_EE', symObjAddr: 0x31FA0, symBinAddr: 0x32A60, symSize: 0x20 }
  - { offset: 0x161AC5, size: 0x8, addend: 0x0, symName: '__ZNSt3__110__function6__funcIZL24whisper_vad_init_contextP19whisper_vad_contextE3$_0NS_9allocatorIS4_EEFP11ggml_cgraphvEE7destroyEv', symObjAddr: 0x31FC0, symBinAddr: 0x32A80, symSize: 0x10 }
  - { offset: 0x161B14, size: 0x8, addend: 0x0, symName: '__ZNSt3__110__function6__funcIZL24whisper_vad_init_contextP19whisper_vad_contextE3$_0NS_9allocatorIS4_EEFP11ggml_cgraphvEE18destroy_deallocateEv', symObjAddr: 0x31FD0, symBinAddr: 0x32A90, symSize: 0x10 }
  - { offset: 0x161C45, size: 0x8, addend: 0x0, symName: '__ZNSt3__110__function6__funcIZL24whisper_vad_init_contextP19whisper_vad_contextE3$_0NS_9allocatorIS4_EEFP11ggml_cgraphvEEclEv', symObjAddr: 0x31FE0, symBinAddr: 0x32AA0, symSize: 0x20 }
  - { offset: 0x161CD2, size: 0x8, addend: 0x0, symName: '__ZNKSt3__110__function6__funcIZL24whisper_vad_init_contextP19whisper_vad_contextE3$_0NS_9allocatorIS4_EEFP11ggml_cgraphvEE6targetERKSt9type_info', symObjAddr: 0x32000, symBinAddr: 0x32AC0, symSize: 0x20 }
  - { offset: 0x161D46, size: 0x8, addend: 0x0, symName: '__ZNKSt3__110__function6__funcIZL24whisper_vad_init_contextP19whisper_vad_contextE3$_0NS_9allocatorIS4_EEFP11ggml_cgraphvEE11target_typeEv', symObjAddr: 0x32020, symBinAddr: 0x32AE0, symSize: 0x10 }
  - { offset: 0x162305, size: 0x8, addend: 0x0, symName: __ZNSt3__16vectorINS0_IPK23whisper_grammar_elementNS_9allocatorIS3_EEEENS4_IS6_EEE21__push_back_slow_pathIRKS6_EEPS6_OT_, symObjAddr: 0x32850, symBinAddr: 0x33310, symSize: 0x1B0 }
  - { offset: 0x162C1E, size: 0x8, addend: 0x0, symName: __ZL29whisper_grammar_advance_stackRKNSt3__16vectorINS0_I23whisper_grammar_elementNS_9allocatorIS1_EEEENS2_IS4_EEEERKNS0_IPKS1_NS2_ISA_EEEERNS0_ISC_NS2_ISC_EEEE.cold.1, symObjAddr: 0x42430, symBinAddr: 0x155D40, symSize: 0x30 }
  - { offset: 0x162C98, size: 0x8, addend: 0x0, symName: __ZNSt3__114__split_bufferINS_6vectorIPK23whisper_grammar_elementNS_9allocatorIS4_EEEERNS5_IS7_EEED1Ev, symObjAddr: 0x327E0, symBinAddr: 0x332A0, symSize: 0x60 }
  - { offset: 0x163053, size: 0x8, addend: 0x0, symName: __ZNSt3__111basic_regexIcNS_12regex_traitsIcEEE7__parseIPKcEET_S7_S7_, symObjAddr: 0x32BD0, symBinAddr: 0x33690, symSize: 0x340 }
  - { offset: 0x163ABD, size: 0x8, addend: 0x0, symName: __ZNSt3__111basic_regexIcNS_12regex_traitsIcEEE13__parse_egrepIPKcEET_S7_S7_, symObjAddr: 0x335D0, symBinAddr: 0x34090, symSize: 0x1E0 }
  - { offset: 0x1640C0, size: 0x8, addend: 0x0, symName: __ZNSt3__111basic_regexIcNS_12regex_traitsIcEEE24__parse_extended_reg_expIPKcEET_S7_S7_, symObjAddr: 0x33260, symBinAddr: 0x33D20, symSize: 0x190 }
  - { offset: 0x164486, size: 0x8, addend: 0x0, symName: __ZNSt3__111basic_regexIcNS_12regex_traitsIcEEE21__parse_basic_reg_expIPKcEET_S7_S7_, symObjAddr: 0x33100, symBinAddr: 0x33BC0, symSize: 0x160 }
  - { offset: 0x1647E2, size: 0x8, addend: 0x0, symName: __ZNSt3__111basic_regexIcNS_12regex_traitsIcEEE12__parse_grepIPKcEET_S7_S7_, symObjAddr: 0x333F0, symBinAddr: 0x33EB0, symSize: 0x1E0 }
  - { offset: 0x164DE5, size: 0x8, addend: 0x0, symName: __ZNSt3__111basic_regexIcNS_12regex_traitsIcEEE19__parse_alternativeIPKcEET_S7_S7_, symObjAddr: 0x337B0, symBinAddr: 0x34270, symSize: 0x90 }
  - { offset: 0x164F41, size: 0x8, addend: 0x0, symName: __ZNSt3__111basic_regexIcNS_12regex_traitsIcEEE16__parse_ecma_expIPKcEET_S7_S7_, symObjAddr: 0x32F10, symBinAddr: 0x339D0, symSize: 0x1F0 }
  - { offset: 0x16540A, size: 0x8, addend: 0x0, symName: __ZNSt3__111basic_regexIcNS_12regex_traitsIcEEE12__parse_termIPKcEET_S7_S7_, symObjAddr: 0x33840, symBinAddr: 0x34300, symSize: 0x80 }
  - { offset: 0x16556F, size: 0x8, addend: 0x0, symName: __ZNSt3__111basic_regexIcNS_12regex_traitsIcEEE18__parse_nondupl_REIPKcEET_S7_S7_, symObjAddr: 0x35D10, symBinAddr: 0x367D0, symSize: 0x1F0 }
  - { offset: 0x165B12, size: 0x8, addend: 0x0, symName: __ZNSt3__111basic_regexIcNS_12regex_traitsIcEEE22__parse_RE_dupl_symbolIPKcEET_S7_S7_PNS_16__owns_one_stateIcEEjj, symObjAddr: 0x35F00, symBinAddr: 0x369C0, symSize: 0x260 }
  - { offset: 0x1661A6, size: 0x8, addend: 0x0, symName: __ZNSt3__111basic_regexIcNS_12regex_traitsIcEEE22__parse_ERE_expressionIPKcEET_S7_S7_, symObjAddr: 0x36240, symBinAddr: 0x36D00, symSize: 0x260 }
  - { offset: 0x1666F2, size: 0x8, addend: 0x0, symName: __ZNSt3__111basic_regexIcNS_12regex_traitsIcEEE23__parse_ERE_dupl_symbolIPKcEET_S7_S7_PNS_16__owns_one_stateIcEEjj, symObjAddr: 0x33E60, symBinAddr: 0x34920, symSize: 0x3F0 }
  - { offset: 0x166C9F, size: 0x8, addend: 0x0, symName: __ZNSt3__111basic_regexIcNS_12regex_traitsIcEEE17__parse_assertionIPKcEET_S7_S7_, symObjAddr: 0x338C0, symBinAddr: 0x34380, symSize: 0x2E0 }
  - { offset: 0x1672C5, size: 0x8, addend: 0x0, symName: __ZNSt3__111basic_regexIcNS_12regex_traitsIcEEE12__parse_atomIPKcEET_S7_S7_, symObjAddr: 0x33BA0, symBinAddr: 0x34660, symSize: 0x2C0 }
  - { offset: 0x167679, size: 0x8, addend: 0x0, symName: __ZNSt3__111basic_regexIcNS_12regex_traitsIcEEE19__parse_atom_escapeIPKcEET_S7_S7_, symObjAddr: 0x34250, symBinAddr: 0x34D10, symSize: 0x100 }
  - { offset: 0x16781A, size: 0x8, addend: 0x0, symName: __ZNSt3__111basic_regexIcNS_12regex_traitsIcEEE26__parse_bracket_expressionIPKcEET_S7_S7_, symObjAddr: 0x34350, symBinAddr: 0x34E10, symSize: 0x140 }
  - { offset: 0x167A4B, size: 0x8, addend: 0x0, symName: __ZNSt3__111basic_regexIcNS_12regex_traitsIcEEE25__parse_pattern_characterIPKcEET_S7_S7_, symObjAddr: 0x34490, symBinAddr: 0x34F50, symSize: 0x1B0 }
  - { offset: 0x167B45, size: 0x8, addend: 0x0, symName: __ZNSt3__111basic_regexIcNS_12regex_traitsIcEEE30__parse_character_class_escapeIPKcEET_S7_S7_, symObjAddr: 0x34640, symBinAddr: 0x35100, symSize: 0x2E0 }
  - { offset: 0x16811E, size: 0x8, addend: 0x0, symName: __ZNSt3__111basic_regexIcNS_12regex_traitsIcEEE24__parse_character_escapeIPKcEET_S7_S7_PNS_12basic_stringIcNS_11char_traitsIcEENS_9allocatorIcEEEE, symObjAddr: 0x34920, symBinAddr: 0x353E0, symSize: 0x410 }
  - { offset: 0x1685ED, size: 0x8, addend: 0x0, symName: __ZNSt3__111basic_regexIcNS_12regex_traitsIcEEE23__parse_expression_termIPKcEET_S7_S7_PNS_20__bracket_expressionIcS2_EE, symObjAddr: 0x34D30, symBinAddr: 0x357F0, symSize: 0x500 }
  - { offset: 0x169CC3, size: 0x8, addend: 0x0, symName: __ZNSt3__111basic_regexIcNS_12regex_traitsIcEEE25__parse_equivalence_classIPKcEET_S7_S7_PNS_20__bracket_expressionIcS2_EE, symObjAddr: 0x35230, symBinAddr: 0x35CF0, symSize: 0x250 }
  - { offset: 0x16A8CA, size: 0x8, addend: 0x0, symName: __ZNSt3__111basic_regexIcNS_12regex_traitsIcEEE18__parse_awk_escapeIPKcEET_S7_S7_PNS_12basic_stringIcNS_11char_traitsIcEENS_9allocatorIcEEEE, symObjAddr: 0x356F0, symBinAddr: 0x361B0, symSize: 0x2E0 }
  - { offset: 0x16A96F, size: 0x8, addend: 0x0, symName: __ZNKSt3__112regex_traitsIcE20__lookup_collatenameIPKcEENS_12basic_stringIcNS_11char_traitsIcEENS_9allocatorIcEEEET_SB_c, symObjAddr: 0x359D0, symBinAddr: 0x36490, symSize: 0x220 }
  - { offset: 0x16B6C6, size: 0x8, addend: 0x0, symName: __ZNKSt3__112regex_traitsIcE18__lookup_classnameIPKcEEjT_S5_bc, symObjAddr: 0x35BF0, symBinAddr: 0x366B0, symSize: 0x120 }
  - { offset: 0x16BEA6, size: 0x8, addend: 0x0, symName: __ZNSt3__111basic_regexIcNS_12regex_traitsIcEEE24__parse_collating_symbolIPKcEET_S7_S7_RNS_12basic_stringIcNS_11char_traitsIcEENS_9allocatorIcEEEE, symObjAddr: 0x35480, symBinAddr: 0x35F40, symSize: 0xD0 }
  - { offset: 0x16C28E, size: 0x8, addend: 0x0, symName: __ZNSt3__111basic_regexIcNS_12regex_traitsIcEEE20__parse_class_escapeIPKcEET_S7_S7_RNS_12basic_stringIcNS_11char_traitsIcEENS_9allocatorIcEEEEPNS_20__bracket_expressionIcS2_EE, symObjAddr: 0x35550, symBinAddr: 0x36010, symSize: 0x1A0 }
  - { offset: 0x16C68E, size: 0x8, addend: 0x0, symName: __ZNSt3__111basic_regexIcNS_12regex_traitsIcEEE32__parse_one_char_or_coll_elem_REIPKcEET_S7_S7_, symObjAddr: 0x36160, symBinAddr: 0x36C20, symSize: 0xE0 }
  - { offset: 0x16CA01, size: 0x8, addend: 0x0, symName: __ZNSt3__111basic_regexIcNS_12regex_traitsIcEEE20__parse_ORD_CHAR_EREIPKcEET_S7_S7_, symObjAddr: 0x364A0, symBinAddr: 0x36F60, symSize: 0x1C0 }
  - { offset: 0x16CA61, size: 0x8, addend: 0x0, symName: __ZNSt3__111basic_regexIcNS_12regex_traitsIcEEE23__parse_QUOTED_CHAR_EREIPKcEET_S7_S7_, symObjAddr: 0x36660, symBinAddr: 0x37120, symSize: 0x200 }
  - { offset: 0x16CEAF, size: 0x8, addend: 0x0, symName: __ZNKSt3__16vectorINS_4pairINS0_IjNS_9allocatorIjEEEE20whisper_partial_utf8EENS2_IS6_EEE20__throw_length_errorB8ne190102Ev, symObjAddr: 0x36FD0, symBinAddr: 0x37A90, symSize: 0x10 }
  - { offset: 0x16CED9, size: 0x8, addend: 0x0, symName: __ZNKSt3__16vectorI25whisper_grammar_candidateNS_9allocatorIS1_EEE20__throw_length_errorB8ne190102Ev, symObjAddr: 0x36FE0, symBinAddr: 0x37AA0, symSize: 0x10 }
  - { offset: 0x16D16D, size: 0x8, addend: 0x0, symName: __ZL43whisper_grammar_reject_candidates_for_stackRKNSt3__16vectorINS0_I23whisper_grammar_elementNS_9allocatorIS1_EEEENS2_IS4_EEEERKNS0_IPKS1_NS2_ISA_EEEERKNS0_I25whisper_grammar_candidateNS2_ISF_EEEE, symObjAddr: 0x36FF0, symBinAddr: 0x37AB0, symSize: 0xDA0 }
  - { offset: 0x17028D, size: 0x8, addend: 0x0, symName: __ZNSt3__16vectorIdNS_9allocatorIdEEE13shrink_to_fitEv, symObjAddr: 0x38070, symBinAddr: 0x38B30, symSize: 0xC0 }
  - { offset: 0x170A47, size: 0x8, addend: 0x0, symName: __ZNSt3__128__exception_guard_exceptionsINS_29_AllocatorDestroyRangeReverseINS_9allocatorINS_6vectorI23whisper_grammar_elementNS2_IS4_EEEEEEPS6_EEED1B8ne190102Ev, symObjAddr: 0x38810, symBinAddr: 0x392D0, symSize: 0x50 }
  - { offset: 0x170A6D, size: 0x8, addend: 0x0, symName: __ZNSt3__128__exception_guard_exceptionsINS_29_AllocatorDestroyRangeReverseINS_9allocatorINS_6vectorI23whisper_grammar_elementNS2_IS4_EEEEEEPS6_EEED1B8ne190102Ev, symObjAddr: 0x38810, symBinAddr: 0x392D0, symSize: 0x50 }
  - { offset: 0x170CAC, size: 0x8, addend: 0x0, symName: __ZNSt3__128__exception_guard_exceptionsINS_29_AllocatorDestroyRangeReverseINS_9allocatorINS_6vectorIPK23whisper_grammar_elementNS2_IS6_EEEEEEPS8_EEED1B8ne190102Ev, symObjAddr: 0x389D0, symBinAddr: 0x39490, symSize: 0x50 }
  - { offset: 0x170CD2, size: 0x8, addend: 0x0, symName: __ZNSt3__128__exception_guard_exceptionsINS_29_AllocatorDestroyRangeReverseINS_9allocatorINS_6vectorIPK23whisper_grammar_elementNS2_IS6_EEEEEEPS8_EEED1B8ne190102Ev, symObjAddr: 0x389D0, symBinAddr: 0x39490, symSize: 0x50 }
  - { offset: 0x171018, size: 0x8, addend: 0x0, symName: __ZNSt3__16vectorI23whisper_grammar_elementNS_9allocatorIS1_EEE18__assign_with_sizeB8ne190102IPS1_S6_EEvT_T0_l, symObjAddr: 0x38E10, symBinAddr: 0x398D0, symSize: 0x150 }
  - { offset: 0x171CDB, size: 0x8, addend: 0x0, symName: __ZNSt3__16vectorIPK23whisper_grammar_elementNS_9allocatorIS3_EEE18__assign_with_sizeB8ne190102IPS3_S8_EEvT_T0_l, symObjAddr: 0x391F0, symBinAddr: 0x39CB0, symSize: 0x150 }
  - { offset: 0x172DCC, size: 0x8, addend: 0x0, symName: __ZL13median_filterP11ggml_tensorPKS_iiPv, symObjAddr: 0x3A770, symBinAddr: 0x3B230, symSize: 0x410 }
  - { offset: 0x173AB7, size: 0x8, addend: 0x0, symName: __ZL13median_filterP11ggml_tensorPKS_iiPv.cold.1, symObjAddr: 0x42460, symBinAddr: 0x155D70, symSize: 0x30 }
  - { offset: 0x173ACF, size: 0x8, addend: 0x0, symName: __ZL13median_filterP11ggml_tensorPKS_iiPv.cold.4, symObjAddr: 0x424F0, symBinAddr: 0x155E00, symSize: 0x2D }
  - { offset: 0x173AE7, size: 0x8, addend: 0x0, symName: __ZL13median_filterP11ggml_tensorPKS_iiPv.cold.2, symObjAddr: 0x42490, symBinAddr: 0x155DA0, symSize: 0x30 }
  - { offset: 0x173AFF, size: 0x8, addend: 0x0, symName: __ZL13median_filterP11ggml_tensorPKS_iiPv.cold.3, symObjAddr: 0x424C0, symBinAddr: 0x155DD0, symSize: 0x30 }
  - { offset: 0x173CD9, size: 0x8, addend: 0x0, symName: __ZNSt3__13mapI10asr_tensorPKcNS_4lessIS1_EENS_9allocatorINS_4pairIKS1_S3_EEEEEC2B8ne190102ESt16initializer_listIS9_ERKS5_, symObjAddr: 0x3AB90, symBinAddr: 0x3B650, symSize: 0x170 }
  - { offset: 0x174797, size: 0x8, addend: 0x0, symName: __ZNSt3__16__treeINS_12__value_typeI10asr_systemNS_3mapI10asr_tensorPKcNS_4lessIS4_EENS_9allocatorINS_4pairIKS4_S6_EEEEEEEENS_19__map_value_compareIS2_SF_NS7_IS2_EELb1EEENS9_ISF_EEE30__emplace_hint_unique_key_argsIS2_JRKNSA_IKS2_SE_EEEEENSA_INS_15__tree_iteratorISF_PNS_11__tree_nodeISF_PvEElEEbEENS_21__tree_const_iteratorISF_SU_lEERKT_DpOT0_, symObjAddr: 0x3AD00, symBinAddr: 0x3B7C0, symSize: 0xF0 }
  - { offset: 0x174DA9, size: 0x8, addend: 0x0, symName: __ZNSt3__16__treeINS_12__value_typeI10asr_systemNS_3mapI10asr_tensorPKcNS_4lessIS4_EENS_9allocatorINS_4pairIKS4_S6_EEEEEEEENS_19__map_value_compareIS2_SF_NS7_IS2_EELb1EEENS9_ISF_EEE12__find_equalIS2_EERPNS_16__tree_node_baseIPvEENS_21__tree_const_iteratorISF_PNS_11__tree_nodeISF_SN_EElEERPNS_15__tree_end_nodeISP_EESQ_RKT_, symObjAddr: 0x3ADF0, symBinAddr: 0x3B8B0, symSize: 0x160 }
  - { offset: 0x1751EB, size: 0x8, addend: 0x0, symName: __ZNSt3__110unique_ptrINS_11__tree_nodeINS_12__value_typeI10asr_systemNS_3mapI10asr_tensorPKcNS_4lessIS5_EENS_9allocatorINS_4pairIKS5_S7_EEEEEEEEPvEENS_22__tree_node_destructorINSA_ISI_EEEEED1B8ne190102Ev, symObjAddr: 0x3AF50, symBinAddr: 0x3BA10, symSize: 0x40 }
  - { offset: 0x175AAE, size: 0x8, addend: 0x0, symName: __ZNSt3__13mapI10asr_tensor7ggml_opNS_4lessIS1_EENS_9allocatorINS_4pairIKS1_S2_EEEEEC2B8ne190102ESt16initializer_listIS8_ERKS4_, symObjAddr: 0x3AFE0, symBinAddr: 0x3BAA0, symSize: 0x170 }
  - { offset: 0x1764E7, size: 0x8, addend: 0x0, symName: __ZNSt3__13mapI10vad_tensor7ggml_opNS_4lessIS1_EENS_9allocatorINS_4pairIKS1_S2_EEEEEC2B8ne190102ESt16initializer_listIS8_ERKS4_, symObjAddr: 0x3B190, symBinAddr: 0x3BC50, symSize: 0x170 }
  - { offset: 0x176F20, size: 0x8, addend: 0x0, symName: __ZNSt3__13mapI10vad_tensorPKcNS_4lessIS1_EENS_9allocatorINS_4pairIKS1_S3_EEEEEC2B8ne190102ESt16initializer_listIS9_ERKS5_, symObjAddr: 0x3B340, symBinAddr: 0x3BE00, symSize: 0x170 }
  - { offset: 0x17784C, size: 0x8, addend: 0x0, symName: __ZNSt3__16__treeINS_12__value_typeI7e_modelNS_12basic_stringIcNS_11char_traitsIcEENS_9allocatorIcEEEEEENS_19__map_value_compareIS2_S9_NS_4lessIS2_EELb1EEENS6_IS9_EEE30__emplace_hint_unique_key_argsIS2_JRKNS_4pairIKS2_S8_EEEEENSH_INS_15__tree_iteratorIS9_PNS_11__tree_nodeIS9_PvEElEEbEENS_21__tree_const_iteratorIS9_SQ_lEERKT_DpOT0_, symObjAddr: 0x3B4F0, symBinAddr: 0x3BFB0, symSize: 0xF0 }
  - { offset: 0x177C8F, size: 0x8, addend: 0x0, symName: __ZNSt3__16__treeINS_12__value_typeI7e_modelNS_12basic_stringIcNS_11char_traitsIcEENS_9allocatorIcEEEEEENS_19__map_value_compareIS2_S9_NS_4lessIS2_EELb1EEENS6_IS9_EEE12__find_equalIS2_EERPNS_16__tree_node_baseIPvEENS_21__tree_const_iteratorIS9_PNS_11__tree_nodeIS9_SI_EElEERPNS_15__tree_end_nodeISK_EESL_RKT_, symObjAddr: 0x3B5E0, symBinAddr: 0x3C0A0, symSize: 0x160 }
  - { offset: 0x1780D1, size: 0x8, addend: 0x0, symName: __ZNSt3__110unique_ptrINS_11__tree_nodeINS_12__value_typeI7e_modelNS_12basic_stringIcNS_11char_traitsIcEENS_9allocatorIcEEEEEEPvEENS_22__tree_node_destructorINS7_ISC_EEEEED1B8ne190102Ev, symObjAddr: 0x3B740, symBinAddr: 0x3C200, symSize: 0x50 }
  - { offset: 0x178831, size: 0x8, addend: 0x0, symName: __ZNSt3__13mapINS_12basic_stringIcNS_11char_traitsIcEENS_9allocatorIcEEEENS_4pairIiS6_EENS_4lessIS6_EENS4_INS7_IKS6_S8_EEEEEC2B8ne190102ESt16initializer_listISC_ERKSA_, symObjAddr: 0x3B860, symBinAddr: 0x3C320, symSize: 0xD0 }
  - { offset: 0x178B5A, size: 0x8, addend: 0x0, symName: __ZNSt3__16__treeINS_12__value_typeINS_12basic_stringIcNS_11char_traitsIcEENS_9allocatorIcEEEENS_4pairIiS7_EEEENS_19__map_value_compareIS7_SA_NS_4lessIS7_EELb1EEENS5_ISA_EEE12__find_equalIS7_EERPNS_16__tree_node_baseIPvEENS_21__tree_const_iteratorISA_PNS_11__tree_nodeISA_SJ_EElEERPNS_15__tree_end_nodeISL_EESM_RKT_, symObjAddr: 0x3B930, symBinAddr: 0x3C3F0, symSize: 0x450 }
  - { offset: 0x17995F, size: 0x8, addend: 0x0, symName: __ZNSt3__16__treeINS_12__value_typeINS_12basic_stringIcNS_11char_traitsIcEENS_9allocatorIcEEEENS_4pairIiS7_EEEENS_19__map_value_compareIS7_SA_NS_4lessIS7_EELb1EEENS5_ISA_EEE16__construct_nodeIJRKNS8_IKS7_S9_EEEEENS_10unique_ptrINS_11__tree_nodeISA_PvEENS_22__tree_node_destructorINS5_ISP_EEEEEEDpOT_, symObjAddr: 0x3BD80, symBinAddr: 0x3C840, symSize: 0xE0 }
  - { offset: 0x17A18C, size: 0x8, addend: 0x0, symName: __ZNSt3__110unique_ptrINS_11__tree_nodeINS_12__value_typeINS_12basic_stringIcNS_11char_traitsIcEENS_9allocatorIcEEEENS_4pairIiS8_EEEEPvEENS_22__tree_node_destructorINS6_ISD_EEEEED1B8ne190102Ev, symObjAddr: 0x3BE60, symBinAddr: 0x3C920, symSize: 0x50 }
  - { offset: 0x17AB75, size: 0x8, addend: 0x0, symName: __ZNSt3__13mapI30whisper_alignment_heads_preset14whisper_aheadsNS_4lessIS1_EENS_9allocatorINS_4pairIKS1_S2_EEEEEC2B8ne190102ESt16initializer_listIS8_ERKS4_, symObjAddr: 0x3BF10, symBinAddr: 0x3C9D0, symSize: 0x170 }
  - { offset: 0x17B652, size: 0x8, addend: 0x0, symName: '__ZNSt3__110__function6__funcIZ18whisper_init_stateE3$_0NS_9allocatorIS2_EEFP11ggml_cgraphvEED1Ev', symObjAddr: 0x3C590, symBinAddr: 0x3D050, symSize: 0x10 }
  - { offset: 0x17B67B, size: 0x8, addend: 0x0, symName: '__ZNSt3__110__function6__funcIZ18whisper_init_stateE3$_0NS_9allocatorIS2_EEFP11ggml_cgraphvEED0Ev', symObjAddr: 0x3C5A0, symBinAddr: 0x3D060, symSize: 0x10 }
  - { offset: 0x17B87F, size: 0x8, addend: 0x0, symName: '__ZNKSt3__110__function6__funcIZ18whisper_init_stateE3$_0NS_9allocatorIS2_EEFP11ggml_cgraphvEE7__cloneEv', symObjAddr: 0x3C5B0, symBinAddr: 0x3D070, symSize: 0x30 }
  - { offset: 0x17BBBB, size: 0x8, addend: 0x0, symName: '__ZNKSt3__110__function6__funcIZ18whisper_init_stateE3$_0NS_9allocatorIS2_EEFP11ggml_cgraphvEE7__cloneEPNS0_6__baseIS7_EE', symObjAddr: 0x3C5E0, symBinAddr: 0x3D0A0, symSize: 0x20 }
  - { offset: 0x17BD14, size: 0x8, addend: 0x0, symName: '__ZNSt3__110__function6__funcIZ18whisper_init_stateE3$_0NS_9allocatorIS2_EEFP11ggml_cgraphvEE7destroyEv', symObjAddr: 0x3C600, symBinAddr: 0x3D0C0, symSize: 0x10 }
  - { offset: 0x17BD63, size: 0x8, addend: 0x0, symName: '__ZNSt3__110__function6__funcIZ18whisper_init_stateE3$_0NS_9allocatorIS2_EEFP11ggml_cgraphvEE18destroy_deallocateEv', symObjAddr: 0x3C610, symBinAddr: 0x3D0D0, symSize: 0x10 }
  - { offset: 0x17BE94, size: 0x8, addend: 0x0, symName: '__ZNSt3__110__function6__funcIZ18whisper_init_stateE3$_0NS_9allocatorIS2_EEFP11ggml_cgraphvEEclEv', symObjAddr: 0x3C620, symBinAddr: 0x3D0E0, symSize: 0x20 }
  - { offset: 0x17BF21, size: 0x8, addend: 0x0, symName: '__ZNKSt3__110__function6__funcIZ18whisper_init_stateE3$_0NS_9allocatorIS2_EEFP11ggml_cgraphvEE6targetERKSt9type_info', symObjAddr: 0x3C640, symBinAddr: 0x3D100, symSize: 0x20 }
  - { offset: 0x17BF95, size: 0x8, addend: 0x0, symName: '__ZNKSt3__110__function6__funcIZ18whisper_init_stateE3$_0NS_9allocatorIS2_EEFP11ggml_cgraphvEE11target_typeEv', symObjAddr: 0x3C660, symBinAddr: 0x3D120, symSize: 0x10 }
  - { offset: 0x17BFB8, size: 0x8, addend: 0x0, symName: '__ZNSt3__110__function6__funcIZ18whisper_init_stateE3$_1NS_9allocatorIS2_EEFP11ggml_cgraphvEED1Ev', symObjAddr: 0x3C670, symBinAddr: 0x3D130, symSize: 0x10 }
  - { offset: 0x17BFE1, size: 0x8, addend: 0x0, symName: '__ZNSt3__110__function6__funcIZ18whisper_init_stateE3$_1NS_9allocatorIS2_EEFP11ggml_cgraphvEED0Ev', symObjAddr: 0x3C680, symBinAddr: 0x3D140, symSize: 0x10 }
  - { offset: 0x17C1E5, size: 0x8, addend: 0x0, symName: '__ZNKSt3__110__function6__funcIZ18whisper_init_stateE3$_1NS_9allocatorIS2_EEFP11ggml_cgraphvEE7__cloneEv', symObjAddr: 0x3C690, symBinAddr: 0x3D150, symSize: 0x30 }
  - { offset: 0x17C521, size: 0x8, addend: 0x0, symName: '__ZNKSt3__110__function6__funcIZ18whisper_init_stateE3$_1NS_9allocatorIS2_EEFP11ggml_cgraphvEE7__cloneEPNS0_6__baseIS7_EE', symObjAddr: 0x3C6C0, symBinAddr: 0x3D180, symSize: 0x20 }
  - { offset: 0x17C67A, size: 0x8, addend: 0x0, symName: '__ZNSt3__110__function6__funcIZ18whisper_init_stateE3$_1NS_9allocatorIS2_EEFP11ggml_cgraphvEE7destroyEv', symObjAddr: 0x3C6E0, symBinAddr: 0x3D1A0, symSize: 0x10 }
  - { offset: 0x17C6C9, size: 0x8, addend: 0x0, symName: '__ZNSt3__110__function6__funcIZ18whisper_init_stateE3$_1NS_9allocatorIS2_EEFP11ggml_cgraphvEE18destroy_deallocateEv', symObjAddr: 0x3C6F0, symBinAddr: 0x3D1B0, symSize: 0x10 }
  - { offset: 0x17C7FA, size: 0x8, addend: 0x0, symName: '__ZNSt3__110__function6__funcIZ18whisper_init_stateE3$_1NS_9allocatorIS2_EEFP11ggml_cgraphvEEclEv', symObjAddr: 0x3C700, symBinAddr: 0x3D1C0, symSize: 0x20 }
  - { offset: 0x17C887, size: 0x8, addend: 0x0, symName: '__ZNKSt3__110__function6__funcIZ18whisper_init_stateE3$_1NS_9allocatorIS2_EEFP11ggml_cgraphvEE6targetERKSt9type_info', symObjAddr: 0x3C720, symBinAddr: 0x3D1E0, symSize: 0x20 }
  - { offset: 0x17C8FB, size: 0x8, addend: 0x0, symName: '__ZNKSt3__110__function6__funcIZ18whisper_init_stateE3$_1NS_9allocatorIS2_EEFP11ggml_cgraphvEE11target_typeEv', symObjAddr: 0x3C740, symBinAddr: 0x3D200, symSize: 0x10 }
  - { offset: 0x17C91E, size: 0x8, addend: 0x0, symName: '__ZNSt3__110__function6__funcIZ18whisper_init_stateE3$_2NS_9allocatorIS2_EEFP11ggml_cgraphvEED1Ev', symObjAddr: 0x3C750, symBinAddr: 0x3D210, symSize: 0x10 }
  - { offset: 0x17C947, size: 0x8, addend: 0x0, symName: '__ZNSt3__110__function6__funcIZ18whisper_init_stateE3$_2NS_9allocatorIS2_EEFP11ggml_cgraphvEED0Ev', symObjAddr: 0x3C760, symBinAddr: 0x3D220, symSize: 0x10 }
  - { offset: 0x17CB4B, size: 0x8, addend: 0x0, symName: '__ZNKSt3__110__function6__funcIZ18whisper_init_stateE3$_2NS_9allocatorIS2_EEFP11ggml_cgraphvEE7__cloneEv', symObjAddr: 0x3C770, symBinAddr: 0x3D230, symSize: 0x30 }
  - { offset: 0x17CE87, size: 0x8, addend: 0x0, symName: '__ZNKSt3__110__function6__funcIZ18whisper_init_stateE3$_2NS_9allocatorIS2_EEFP11ggml_cgraphvEE7__cloneEPNS0_6__baseIS7_EE', symObjAddr: 0x3C7A0, symBinAddr: 0x3D260, symSize: 0x20 }
  - { offset: 0x17CFE0, size: 0x8, addend: 0x0, symName: '__ZNSt3__110__function6__funcIZ18whisper_init_stateE3$_2NS_9allocatorIS2_EEFP11ggml_cgraphvEE7destroyEv', symObjAddr: 0x3C7C0, symBinAddr: 0x3D280, symSize: 0x10 }
  - { offset: 0x17D02F, size: 0x8, addend: 0x0, symName: '__ZNSt3__110__function6__funcIZ18whisper_init_stateE3$_2NS_9allocatorIS2_EEFP11ggml_cgraphvEE18destroy_deallocateEv', symObjAddr: 0x3C7D0, symBinAddr: 0x3D290, symSize: 0x10 }
  - { offset: 0x17D160, size: 0x8, addend: 0x0, symName: '__ZNSt3__110__function6__funcIZ18whisper_init_stateE3$_2NS_9allocatorIS2_EEFP11ggml_cgraphvEEclEv', symObjAddr: 0x3C7E0, symBinAddr: 0x3D2A0, symSize: 0x20 }
  - { offset: 0x17D1ED, size: 0x8, addend: 0x0, symName: '__ZNKSt3__110__function6__funcIZ18whisper_init_stateE3$_2NS_9allocatorIS2_EEFP11ggml_cgraphvEE6targetERKSt9type_info', symObjAddr: 0x3C800, symBinAddr: 0x3D2C0, symSize: 0x20 }
  - { offset: 0x17D261, size: 0x8, addend: 0x0, symName: '__ZNKSt3__110__function6__funcIZ18whisper_init_stateE3$_2NS_9allocatorIS2_EEFP11ggml_cgraphvEE11target_typeEv', symObjAddr: 0x3C820, symBinAddr: 0x3D2E0, symSize: 0x10 }
  - { offset: 0x17D284, size: 0x8, addend: 0x0, symName: '__ZNSt3__110__function6__funcIZ18whisper_init_stateE3$_3NS_9allocatorIS2_EEFP11ggml_cgraphvEED1Ev', symObjAddr: 0x3C830, symBinAddr: 0x3D2F0, symSize: 0x10 }
  - { offset: 0x17D2AD, size: 0x8, addend: 0x0, symName: '__ZNSt3__110__function6__funcIZ18whisper_init_stateE3$_3NS_9allocatorIS2_EEFP11ggml_cgraphvEED0Ev', symObjAddr: 0x3C840, symBinAddr: 0x3D300, symSize: 0x10 }
  - { offset: 0x17D4B1, size: 0x8, addend: 0x0, symName: '__ZNKSt3__110__function6__funcIZ18whisper_init_stateE3$_3NS_9allocatorIS2_EEFP11ggml_cgraphvEE7__cloneEv', symObjAddr: 0x3C850, symBinAddr: 0x3D310, symSize: 0x30 }
  - { offset: 0x17D7ED, size: 0x8, addend: 0x0, symName: '__ZNKSt3__110__function6__funcIZ18whisper_init_stateE3$_3NS_9allocatorIS2_EEFP11ggml_cgraphvEE7__cloneEPNS0_6__baseIS7_EE', symObjAddr: 0x3C880, symBinAddr: 0x3D340, symSize: 0x20 }
  - { offset: 0x17D946, size: 0x8, addend: 0x0, symName: '__ZNSt3__110__function6__funcIZ18whisper_init_stateE3$_3NS_9allocatorIS2_EEFP11ggml_cgraphvEE7destroyEv', symObjAddr: 0x3C8A0, symBinAddr: 0x3D360, symSize: 0x10 }
  - { offset: 0x17D995, size: 0x8, addend: 0x0, symName: '__ZNSt3__110__function6__funcIZ18whisper_init_stateE3$_3NS_9allocatorIS2_EEFP11ggml_cgraphvEE18destroy_deallocateEv', symObjAddr: 0x3C8B0, symBinAddr: 0x3D370, symSize: 0x10 }
  - { offset: 0x17DAED, size: 0x8, addend: 0x0, symName: '__ZNSt3__110__function6__funcIZ18whisper_init_stateE3$_3NS_9allocatorIS2_EEFP11ggml_cgraphvEEclEv', symObjAddr: 0x3C8C0, symBinAddr: 0x3D380, symSize: 0x130 }
  - { offset: 0x17DC17, size: 0x8, addend: 0x0, symName: '__ZNKSt3__110__function6__funcIZ18whisper_init_stateE3$_3NS_9allocatorIS2_EEFP11ggml_cgraphvEE6targetERKSt9type_info', symObjAddr: 0x3C9F0, symBinAddr: 0x3D4B0, symSize: 0x20 }
  - { offset: 0x17DC8B, size: 0x8, addend: 0x0, symName: '__ZNKSt3__110__function6__funcIZ18whisper_init_stateE3$_3NS_9allocatorIS2_EEFP11ggml_cgraphvEE11target_typeEv', symObjAddr: 0x3CA10, symBinAddr: 0x3D4D0, symSize: 0x10 }
  - { offset: 0x17E035, size: 0x8, addend: 0x0, symName: __ZNKSt3__16vectorI19whisper_vad_segmentNS_9allocatorIS1_EEE20__throw_length_errorB8ne190102Ev, symObjAddr: 0x3DF70, symBinAddr: 0x3EA30, symSize: 0x10 }
  - { offset: 0x17E05F, size: 0x8, addend: 0x0, symName: __ZNSt3__16vectorI18whisper_token_dataNS_9allocatorIS1_EEE8__appendEm, symObjAddr: 0x3DF80, symBinAddr: 0x3EA40, symSize: 0x1A0 }
  - { offset: 0x17E2BE, size: 0x8, addend: 0x0, symName: __ZNKSt3__16vectorI15whisper_segmentNS_9allocatorIS1_EEE20__throw_length_errorB8ne190102Ev, symObjAddr: 0x3E370, symBinAddr: 0x3EE30, symSize: 0x10 }
  - { offset: 0x17E2E8, size: 0x8, addend: 0x0, symName: __ZNSt3__128__exception_guard_exceptionsINS_6vectorINS_12basic_stringIcNS_11char_traitsIcEENS_9allocatorIcEEEENS5_IS7_EEE16__destroy_vectorEED1B8ne190102Ev, symObjAddr: 0x3E380, symBinAddr: 0x3EE40, symSize: 0x70 }
  - { offset: 0x17E313, size: 0x8, addend: 0x0, symName: __ZNSt3__128__exception_guard_exceptionsINS_6vectorINS_12basic_stringIcNS_11char_traitsIcEENS_9allocatorIcEEEENS5_IS7_EEE16__destroy_vectorEED1B8ne190102Ev, symObjAddr: 0x3E380, symBinAddr: 0x3EE40, symSize: 0x70 }
  - { offset: 0x17E5F6, size: 0x8, addend: 0x0, symName: __ZNSt3__128__exception_guard_exceptionsINS_29_AllocatorDestroyRangeReverseINS_9allocatorINS_12basic_stringIcNS_11char_traitsIcEENS2_IcEEEEEEPS7_EEED1B8ne190102Ev, symObjAddr: 0x3E3F0, symBinAddr: 0x3EEB0, symSize: 0x40 }
  - { offset: 0x17E624, size: 0x8, addend: 0x0, symName: __ZNSt3__128__exception_guard_exceptionsINS_29_AllocatorDestroyRangeReverseINS_9allocatorINS_12basic_stringIcNS_11char_traitsIcEENS2_IcEEEEEEPS7_EEED1B8ne190102Ev, symObjAddr: 0x3E3F0, symBinAddr: 0x3EEB0, symSize: 0x40 }
  - { offset: 0x17F66C, size: 0x8, addend: 0x0, symName: __ZNSt3__110unique_ptrINS_5tupleIJNS0_INS_15__thread_structENS_14default_deleteIS2_EEEEPFiP15whisper_contextP13whisper_state19whisper_full_paramsPKfiES7_S9_SA_SC_iEEENS3_ISF_EEED1B8ne190102Ev, symObjAddr: 0x41FA0, symBinAddr: 0x42A60, symSize: 0x50 }
  - { offset: 0x18055D, size: 0x8, addend: 0x0, symName: __GLOBAL__sub_I_whisper.cpp, symObjAddr: 0x44AF0, symBinAddr: 0x42C80, symSize: 0x306F }
  - { offset: 0x192596, size: 0x8, addend: 0x0, symName: __ZNSt3__14__fs10filesystemdvB8ne190102ERKNS1_4pathES4_, symObjAddr: 0x3330, symBinAddr: 0x48EC0, symSize: 0xB0 }
  - { offset: 0x1A2110, size: 0x8, addend: 0x0, symName: _ggml_backend_register, symObjAddr: 0x0, symBinAddr: 0x45CF0, symSize: 0xD0 }
  - { offset: 0x1A22EF, size: 0x8, addend: 0x0, symName: __ZN21ggml_backend_registry16register_backendEP16ggml_backend_regNSt3__110unique_ptrIv17dl_handle_deleterEE, symObjAddr: 0xD0, symBinAddr: 0x45DC0, symSize: 0x1E0 }
  - { offset: 0x1A2B98, size: 0x8, addend: 0x0, symName: __ZN21ggml_backend_registryC2Ev, symObjAddr: 0x2D70, symBinAddr: 0x48A60, symSize: 0x120 }
  - { offset: 0x1A31C9, size: 0x8, addend: 0x0, symName: __ZNSt3__110unique_ptrIv17dl_handle_deleterED1B8ne190102Ev, symObjAddr: 0x2B0, symBinAddr: 0x45FA0, symSize: 0x30 }
  - { offset: 0x1A388A, size: 0x8, addend: 0x0, symName: __ZNSt3__16vectorI22ggml_backend_reg_entryNS_9allocatorIS1_EEE21__push_back_slow_pathIS1_EEPS1_OT_, symObjAddr: 0x3010, symBinAddr: 0x48CF0, symSize: 0x170 }
  - { offset: 0x1A404F, size: 0x8, addend: 0x0, symName: __ZNKSt3__16vectorIP19ggml_backend_deviceNS_9allocatorIS2_EEE20__throw_length_errorB8ne190102Ev, symObjAddr: 0x3250, symBinAddr: 0x48E70, symSize: 0x10 }
  - { offset: 0x1A4084, size: 0x8, addend: 0x0, symName: __ZN22ggml_backend_reg_entryD1Ev, symObjAddr: 0x2F20, symBinAddr: 0x48C00, symSize: 0x30 }
  - { offset: 0x1A414A, size: 0x8, addend: 0x0, symName: _ggml_backend_device_register, symObjAddr: 0x2E0, symBinAddr: 0x45FD0, symSize: 0x1A0 }
  - { offset: 0x1A4551, size: 0x8, addend: 0x0, symName: _ggml_backend_reg_count, symObjAddr: 0x480, symBinAddr: 0x46170, symSize: 0x90 }
  - { offset: 0x1A45EA, size: 0x8, addend: 0x0, symName: _ggml_backend_reg_get, symObjAddr: 0x510, symBinAddr: 0x46200, symSize: 0x120 }
  - { offset: 0x1A4751, size: 0x8, addend: 0x0, symName: _ggml_backend_reg_by_name, symObjAddr: 0x630, symBinAddr: 0x46320, symSize: 0x130 }
  - { offset: 0x1A48E3, size: 0x8, addend: 0x0, symName: _ggml_backend_dev_count, symObjAddr: 0x760, symBinAddr: 0x46450, symSize: 0x90 }
  - { offset: 0x1A497C, size: 0x8, addend: 0x0, symName: _ggml_backend_dev_get, symObjAddr: 0x7F0, symBinAddr: 0x464E0, symSize: 0x120 }
  - { offset: 0x1A4A80, size: 0x8, addend: 0x0, symName: _ggml_backend_dev_by_name, symObjAddr: 0x910, symBinAddr: 0x46600, symSize: 0x130 }
  - { offset: 0x1A4BF5, size: 0x8, addend: 0x0, symName: _ggml_backend_dev_by_type, symObjAddr: 0xA40, symBinAddr: 0x46730, symSize: 0xD0 }
  - { offset: 0x1A4CEB, size: 0x8, addend: 0x0, symName: _ggml_backend_init_by_name, symObjAddr: 0xB10, symBinAddr: 0x46800, symSize: 0x30 }
  - { offset: 0x1A4D76, size: 0x8, addend: 0x0, symName: _ggml_backend_init_by_type, symObjAddr: 0xB40, symBinAddr: 0x46830, symSize: 0x30 }
  - { offset: 0x1A4DEA, size: 0x8, addend: 0x0, symName: _ggml_backend_init_best, symObjAddr: 0xB70, symBinAddr: 0x46860, symSize: 0x40 }
  - { offset: 0x1A5166, size: 0x8, addend: 0x0, symName: _ggml_backend_load, symObjAddr: 0xBB0, symBinAddr: 0x468A0, symSize: 0x100 }
  - { offset: 0x1A5502, size: 0x8, addend: 0x0, symName: __ZNSt3__112basic_stringIcNS_11char_traitsIcEENS_9allocatorIcEEE6appendB8ne190102IPKcLi0EEERS5_T_SA_, symObjAddr: 0x3450, symBinAddr: 0x48FE0, symSize: 0x1F0 }
  - { offset: 0x1A5F80, size: 0x8, addend: 0x0, symName: __ZN21ggml_backend_registry12load_backendERKNSt3__14__fs10filesystem4pathEb, symObjAddr: 0xCB0, symBinAddr: 0x469A0, symSize: 0x5B0 }
  - { offset: 0x1A7D69, size: 0x8, addend: 0x0, symName: _ggml_backend_unload, symObjAddr: 0x1260, symBinAddr: 0x46F50, symSize: 0x90 }
  - { offset: 0x1A7DE5, size: 0x8, addend: 0x0, symName: __ZN21ggml_backend_registry14unload_backendEP16ggml_backend_regb, symObjAddr: 0x12F0, symBinAddr: 0x46FE0, symSize: 0x210 }
  - { offset: 0x1A8AA3, size: 0x8, addend: 0x0, symName: _ggml_backend_load_all, symObjAddr: 0x1500, symBinAddr: 0x471F0, symSize: 0x10 }
  - { offset: 0x1A8AD0, size: 0x8, addend: 0x0, symName: _ggml_backend_load_all_from_path, symObjAddr: 0x1510, symBinAddr: 0x47200, symSize: 0xE0 }
  - { offset: 0x1A8C26, size: 0x8, addend: 0x0, symName: __ZL22ggml_backend_load_bestPKcbS0_, symObjAddr: 0x15F0, symBinAddr: 0x472E0, symSize: 0x1770 }
  - { offset: 0x1B1A58, size: 0x8, addend: 0x0, symName: __ZNSt3__16vectorINS_4__fs10filesystem4pathENS_9allocatorIS3_EEE21__push_back_slow_pathIS3_EEPS3_OT_, symObjAddr: 0x3640, symBinAddr: 0x491D0, symSize: 0x180 }
  - { offset: 0x1B222C, size: 0x8, addend: 0x0, symName: __ZNSt3__14__fs10filesystem18directory_iteratorD1B8ne190102Ev, symObjAddr: 0x32F0, symBinAddr: 0x48E80, symSize: 0x40 }
  - { offset: 0x1B2237, size: 0x8, addend: 0x0, symName: __ZNSt3__14__fs10filesystem18directory_iteratorD1B8ne190102Ev, symObjAddr: 0x32F0, symBinAddr: 0x48E80, symSize: 0x40 }
  - { offset: 0x1B2308, size: 0x8, addend: 0x0, symName: __ZNSt3__16vectorINS_4__fs10filesystem4pathENS_9allocatorIS3_EEED1B8ne190102Ev, symObjAddr: 0x33E0, symBinAddr: 0x48F70, symSize: 0x70 }
  - { offset: 0x1B25D7, size: 0x8, addend: 0x0, symName: __ZN21ggml_backend_registryD1Ev, symObjAddr: 0x2D60, symBinAddr: 0x48A50, symSize: 0x10 }
  - { offset: 0x1B2617, size: 0x8, addend: 0x0, symName: __ZN21ggml_backend_registryD2Ev, symObjAddr: 0x2F50, symBinAddr: 0x48C30, symSize: 0xC0 }
  - { offset: 0x1B2B77, size: 0x8, addend: 0x0, symName: __ZNSt3__16vectorI22ggml_backend_reg_entryNS_9allocatorIS1_EEED1B8ne190102Ev, symObjAddr: 0x2E90, symBinAddr: 0x48B80, symSize: 0x80 }
  - { offset: 0x1B2FB3, size: 0x8, addend: 0x0, symName: __ZNKSt3__16vectorI22ggml_backend_reg_entryNS_9allocatorIS1_EEE20__throw_length_errorB8ne190102Ev, symObjAddr: 0x3180, symBinAddr: 0x48E60, symSize: 0x10 }
  - { offset: 0x1B35CD, size: 0x8, addend: 0x0, symName: __ZNKSt3__16vectorINS_4__fs10filesystem4pathENS_9allocatorIS3_EEE20__throw_length_errorB8ne190102Ev, symObjAddr: 0x37C0, symBinAddr: 0x49350, symSize: 0x10 }
  - { offset: 0x1B54E4, size: 0x8, addend: 0x0, symName: _ggml_op_can_inplace, symObjAddr: 0x0, symBinAddr: 0x49360, symSize: 0x160 }
  - { offset: 0x1B673F, size: 0x8, addend: 0x0, symName: _ggml_op_can_inplace, symObjAddr: 0x0, symBinAddr: 0x49360, symSize: 0x160 }
  - { offset: 0x1B67A8, size: 0x8, addend: 0x0, symName: _ggml_tallocr_new, symObjAddr: 0x160, symBinAddr: 0x494C0, symSize: 0x80 }
  - { offset: 0x1B6865, size: 0x8, addend: 0x0, symName: _ggml_tallocr_alloc, symObjAddr: 0x1E0, symBinAddr: 0x49540, symSize: 0xC0 }
  - { offset: 0x1B69FD, size: 0x8, addend: 0x0, symName: _ggml_gallocr_new_n, symObjAddr: 0x2A0, symBinAddr: 0x49600, symSize: 0x250 }
  - { offset: 0x1B6C51, size: 0x8, addend: 0x0, symName: _ggml_dyn_tallocr_reset, symObjAddr: 0x16C0, symBinAddr: 0x4AA20, symSize: 0x140 }
  - { offset: 0x1B6D7A, size: 0x8, addend: 0x0, symName: _ggml_gallocr_new, symObjAddr: 0x4F0, symBinAddr: 0x49850, symSize: 0x20 }
  - { offset: 0x1B6DEB, size: 0x8, addend: 0x0, symName: _ggml_gallocr_free, symObjAddr: 0x510, symBinAddr: 0x49870, symSize: 0x140 }
  - { offset: 0x1B6F87, size: 0x8, addend: 0x0, symName: _ggml_vbuffer_free, symObjAddr: 0x650, symBinAddr: 0x499B0, symSize: 0xC0 }
  - { offset: 0x1B75BE, size: 0x8, addend: 0x0, symName: _ggml_gallocr_reserve_n, symObjAddr: 0x710, symBinAddr: 0x49A70, symSize: 0xFB0 }
  - { offset: 0x1B86F8, size: 0x8, addend: 0x0, symName: _ggml_dyn_tallocr_reset, symObjAddr: 0x16C0, symBinAddr: 0x4AA20, symSize: 0x140 }
  - { offset: 0x1B872E, size: 0x8, addend: 0x0, symName: _ggml_gallocr_allocate_node, symObjAddr: 0x26D0, symBinAddr: 0x4BA30, symSize: 0x73E }
  - { offset: 0x1B8EB4, size: 0x8, addend: 0x0, symName: _ggml_gallocr_hash_get, symObjAddr: 0x1800, symBinAddr: 0x4AB60, symSize: 0xB0 }
  - { offset: 0x1B8FA6, size: 0x8, addend: 0x0, symName: _ggml_gallocr_reserve, symObjAddr: 0x18B0, symBinAddr: 0x4AC10, symSize: 0x10 }
  - { offset: 0x1B9191, size: 0x8, addend: 0x0, symName: _ggml_gallocr_alloc_graph, symObjAddr: 0x18C0, symBinAddr: 0x4AC20, symSize: 0x7B0 }
  - { offset: 0x1B9838, size: 0x8, addend: 0x0, symName: _ggml_gallocr_get_buffer_size, symObjAddr: 0x2070, symBinAddr: 0x4B3D0, symSize: 0x250 }
  - { offset: 0x1B99CF, size: 0x8, addend: 0x0, symName: _ggml_backend_alloc_ctx_tensors_from_buft, symObjAddr: 0x22C0, symBinAddr: 0x4B620, symSize: 0x1B0 }
  - { offset: 0x1B9C6A, size: 0x8, addend: 0x0, symName: _alloc_tensor_range, symObjAddr: 0x2470, symBinAddr: 0x4B7D0, symSize: 0x230 }
  - { offset: 0x1BA073, size: 0x8, addend: 0x0, symName: _ggml_backend_alloc_ctx_tensors, symObjAddr: 0x26A0, symBinAddr: 0x4BA00, symSize: 0x30 }
  - { offset: 0x1BA2C0, size: 0x8, addend: 0x0, symName: _ggml_backend_buft_name, symObjAddr: 0x0, symBinAddr: 0x4C170, symSize: 0x30 }
  - { offset: 0x1BA2E1, size: 0x8, addend: 0x0, symName: _ggml_backend_cpu_buffer_type, symObjAddr: 0x8110, symBinAddr: 0x54280, symSize: 0x10 }
  - { offset: 0x1BA309, size: 0x8, addend: 0x0, symName: __ZZ28ggml_backend_cpu_buffer_typeE28ggml_backend_cpu_buffer_type, symObjAddr: 0x9710, symBinAddr: 0x182288, symSize: 0x0 }
  - { offset: 0x1BA39C, size: 0x8, addend: 0x0, symName: __ZL27ggml_backend_multi_buffer_i, symObjAddr: 0x9638, symBinAddr: 0x17F640, symSize: 0x0 }
  - { offset: 0x1BA3BC, size: 0x8, addend: 0x0, symName: __ZL25ggml_backend_cpu_buffer_i, symObjAddr: 0x96C8, symBinAddr: 0x17F6D0, symSize: 0x0 }
  - { offset: 0x1BA3D7, size: 0x8, addend: 0x0, symName: __ZL34ggml_backend_cpu_buffer_from_ptr_i, symObjAddr: 0x9680, symBinAddr: 0x17F688, symSize: 0x0 }
  - { offset: 0x1BDA49, size: 0x8, addend: 0x0, symName: _ggml_backend_buft_name, symObjAddr: 0x0, symBinAddr: 0x4C170, symSize: 0x30 }
  - { offset: 0x1BDAEA, size: 0x8, addend: 0x0, symName: _ggml_backend_buft_alloc_buffer, symObjAddr: 0x30, symBinAddr: 0x4C1A0, symSize: 0x80 }
  - { offset: 0x1BDB6B, size: 0x8, addend: 0x0, symName: _ggml_backend_buffer_init, symObjAddr: 0xB0, symBinAddr: 0x4C220, symSize: 0x70 }
  - { offset: 0x1BDBB1, size: 0x8, addend: 0x0, symName: _ggml_backend_buft_get_alignment, symObjAddr: 0x120, symBinAddr: 0x4C290, symSize: 0x30 }
  - { offset: 0x1BDBF2, size: 0x8, addend: 0x0, symName: _ggml_backend_buft_get_max_size, symObjAddr: 0x150, symBinAddr: 0x4C2C0, symSize: 0x40 }
  - { offset: 0x1BDC33, size: 0x8, addend: 0x0, symName: _ggml_backend_buft_get_alloc_size, symObjAddr: 0x190, symBinAddr: 0x4C300, symSize: 0x40 }
  - { offset: 0x1BDCB4, size: 0x8, addend: 0x0, symName: _ggml_backend_buft_is_host, symObjAddr: 0x1D0, symBinAddr: 0x4C340, symSize: 0x40 }
  - { offset: 0x1BDCF5, size: 0x8, addend: 0x0, symName: _ggml_backend_buft_get_device, symObjAddr: 0x210, symBinAddr: 0x4C380, symSize: 0x30 }
  - { offset: 0x1BDD68, size: 0x8, addend: 0x0, symName: _ggml_backend_buffer_name, symObjAddr: 0x240, symBinAddr: 0x4C3B0, symSize: 0x60 }
  - { offset: 0x1BDDFC, size: 0x8, addend: 0x0, symName: _ggml_backend_buffer_get_type, symObjAddr: 0x2A0, symBinAddr: 0x4C410, symSize: 0x30 }
  - { offset: 0x1BDE32, size: 0x8, addend: 0x0, symName: _ggml_backend_buffer_free, symObjAddr: 0x2D0, symBinAddr: 0x4C440, symSize: 0x30 }
  - { offset: 0x1BDE5D, size: 0x8, addend: 0x0, symName: _ggml_backend_buffer_get_size, symObjAddr: 0x300, symBinAddr: 0x4C470, symSize: 0x30 }
  - { offset: 0x1BDE92, size: 0x8, addend: 0x0, symName: _ggml_backend_buffer_get_base, symObjAddr: 0x330, symBinAddr: 0x4C4A0, symSize: 0x60 }
  - { offset: 0x1BDEE0, size: 0x8, addend: 0x0, symName: _ggml_backend_buffer_init_tensor, symObjAddr: 0x390, symBinAddr: 0x4C500, symSize: 0x40 }
  - { offset: 0x1BDEF4, size: 0x8, addend: 0x0, symName: _ggml_backend_buffer_init_tensor, symObjAddr: 0x390, symBinAddr: 0x4C500, symSize: 0x40 }
  - { offset: 0x1BDF40, size: 0x8, addend: 0x0, symName: _ggml_backend_buffer_clear, symObjAddr: 0x3D0, symBinAddr: 0x4C540, symSize: 0x40 }
  - { offset: 0x1BDFA5, size: 0x8, addend: 0x0, symName: _ggml_backend_buffer_get_alignment, symObjAddr: 0x410, symBinAddr: 0x4C580, symSize: 0x60 }
  - { offset: 0x1BE052, size: 0x8, addend: 0x0, symName: _ggml_backend_buffer_get_max_size, symObjAddr: 0x470, symBinAddr: 0x4C5E0, symSize: 0x70 }
  - { offset: 0x1BE119, size: 0x8, addend: 0x0, symName: _ggml_backend_buffer_get_alloc_size, symObjAddr: 0x4E0, symBinAddr: 0x4C650, symSize: 0x70 }
  - { offset: 0x1BE1DC, size: 0x8, addend: 0x0, symName: _ggml_backend_buffer_is_host, symObjAddr: 0x550, symBinAddr: 0x4C6C0, symSize: 0x70 }
  - { offset: 0x1BE2BF, size: 0x8, addend: 0x0, symName: _ggml_backend_buffer_set_usage, symObjAddr: 0x5C0, symBinAddr: 0x4C730, symSize: 0x80 }
  - { offset: 0x1BE38C, size: 0x8, addend: 0x0, symName: _ggml_backend_buffer_is_multi_buffer, symObjAddr: 0x640, symBinAddr: 0x4C7B0, symSize: 0x40 }
  - { offset: 0x1BE3C2, size: 0x8, addend: 0x0, symName: _ggml_backend_multi_buffer_set_usage, symObjAddr: 0x680, symBinAddr: 0x4C7F0, symSize: 0xA0 }
  - { offset: 0x1BE471, size: 0x8, addend: 0x0, symName: _ggml_backend_buffer_get_usage, symObjAddr: 0x720, symBinAddr: 0x4C890, symSize: 0x30 }
  - { offset: 0x1BE4A7, size: 0x8, addend: 0x0, symName: _ggml_backend_buffer_reset, symObjAddr: 0x750, symBinAddr: 0x4C8C0, symSize: 0x40 }
  - { offset: 0x1BE4F1, size: 0x8, addend: 0x0, symName: _ggml_backend_buffer_copy_tensor, symObjAddr: 0x790, symBinAddr: 0x4C900, symSize: 0x30 }
  - { offset: 0x1BE530, size: 0x8, addend: 0x0, symName: _ggml_backend_guid, symObjAddr: 0x7C0, symBinAddr: 0x4C930, symSize: 0x20 }
  - { offset: 0x1BE559, size: 0x8, addend: 0x0, symName: _ggml_backend_name, symObjAddr: 0x7E0, symBinAddr: 0x4C950, symSize: 0x20 }
  - { offset: 0x1BE582, size: 0x8, addend: 0x0, symName: _ggml_backend_free, symObjAddr: 0x800, symBinAddr: 0x4C970, symSize: 0x10 }
  - { offset: 0x1BE5CE, size: 0x8, addend: 0x0, symName: _ggml_backend_get_default_buffer_type, symObjAddr: 0x810, symBinAddr: 0x4C980, symSize: 0x60 }
  - { offset: 0x1BE63F, size: 0x8, addend: 0x0, symName: _ggml_backend_dev_buffer_type, symObjAddr: 0x870, symBinAddr: 0x4C9E0, symSize: 0x30 }
  - { offset: 0x1BE6BE, size: 0x8, addend: 0x0, symName: _ggml_backend_alloc_buffer, symObjAddr: 0x8A0, symBinAddr: 0x4CA10, symSize: 0xE0 }
  - { offset: 0x1BE7DD, size: 0x8, addend: 0x0, symName: _ggml_backend_get_alignment, symObjAddr: 0x980, symBinAddr: 0x4CAF0, symSize: 0x90 }
  - { offset: 0x1BE8AC, size: 0x8, addend: 0x0, symName: _ggml_backend_get_max_size, symObjAddr: 0xA10, symBinAddr: 0x4CB80, symSize: 0xA0 }
  - { offset: 0x1BE9C3, size: 0x8, addend: 0x0, symName: _ggml_backend_tensor_set_async, symObjAddr: 0xAB0, symBinAddr: 0x4CC20, symSize: 0x1C0 }
  - { offset: 0x1BEB44, size: 0x8, addend: 0x0, symName: _ggml_backend_tensor_set, symObjAddr: 0xC70, symBinAddr: 0x4CDE0, symSize: 0x120 }
  - { offset: 0x1BEC51, size: 0x8, addend: 0x0, symName: _ggml_backend_tensor_get_async, symObjAddr: 0xD90, symBinAddr: 0x4CF00, symSize: 0x1C0 }
  - { offset: 0x1BEDD8, size: 0x8, addend: 0x0, symName: _ggml_backend_tensor_get, symObjAddr: 0xF50, symBinAddr: 0x4D0C0, symSize: 0x120 }
  - { offset: 0x1BEE9D, size: 0x8, addend: 0x0, symName: _ggml_backend_tensor_memset, symObjAddr: 0x1070, symBinAddr: 0x4D1E0, symSize: 0x150 }
  - { offset: 0x1BEF9F, size: 0x8, addend: 0x0, symName: _ggml_backend_synchronize, symObjAddr: 0x11C0, symBinAddr: 0x4D330, symSize: 0x40 }
  - { offset: 0x1BEFE1, size: 0x8, addend: 0x0, symName: _ggml_backend_graph_plan_create, symObjAddr: 0x1200, symBinAddr: 0x4D370, symSize: 0x60 }
  - { offset: 0x1BF059, size: 0x8, addend: 0x0, symName: _ggml_backend_graph_plan_free, symObjAddr: 0x1260, symBinAddr: 0x4D3D0, symSize: 0x60 }
  - { offset: 0x1BF0CD, size: 0x8, addend: 0x0, symName: _ggml_backend_graph_plan_compute, symObjAddr: 0x12C0, symBinAddr: 0x4D430, symSize: 0x60 }
  - { offset: 0x1BF183, size: 0x8, addend: 0x0, symName: _ggml_backend_graph_compute, symObjAddr: 0x1320, symBinAddr: 0x4D490, symSize: 0x50 }
  - { offset: 0x1BF229, size: 0x8, addend: 0x0, symName: _ggml_backend_graph_compute_async, symObjAddr: 0x1370, symBinAddr: 0x4D4E0, symSize: 0x30 }
  - { offset: 0x1BF261, size: 0x8, addend: 0x0, symName: _ggml_backend_supports_op, symObjAddr: 0x13A0, symBinAddr: 0x4D510, symSize: 0x60 }
  - { offset: 0x1BF29C, size: 0x8, addend: 0x0, symName: _ggml_backend_supports_op, symObjAddr: 0x13A0, symBinAddr: 0x4D510, symSize: 0x60 }
  - { offset: 0x1BF322, size: 0x8, addend: 0x0, symName: _ggml_backend_dev_supports_op, symObjAddr: 0x1400, symBinAddr: 0x4D570, symSize: 0x30 }
  - { offset: 0x1BF35A, size: 0x8, addend: 0x0, symName: _ggml_backend_supports_buft, symObjAddr: 0x1430, symBinAddr: 0x4D5A0, symSize: 0x60 }
  - { offset: 0x1BF395, size: 0x8, addend: 0x0, symName: _ggml_backend_supports_buft, symObjAddr: 0x1430, symBinAddr: 0x4D5A0, symSize: 0x60 }
  - { offset: 0x1BF41B, size: 0x8, addend: 0x0, symName: _ggml_backend_dev_supports_buft, symObjAddr: 0x1490, symBinAddr: 0x4D600, symSize: 0x30 }
  - { offset: 0x1BF453, size: 0x8, addend: 0x0, symName: _ggml_backend_offload_op, symObjAddr: 0x14C0, symBinAddr: 0x4D630, symSize: 0x70 }
  - { offset: 0x1BF48E, size: 0x8, addend: 0x0, symName: _ggml_backend_offload_op, symObjAddr: 0x14C0, symBinAddr: 0x4D630, symSize: 0x70 }
  - { offset: 0x1BF514, size: 0x8, addend: 0x0, symName: _ggml_backend_dev_offload_op, symObjAddr: 0x1530, symBinAddr: 0x4D6A0, symSize: 0x40 }
  - { offset: 0x1BF560, size: 0x8, addend: 0x0, symName: _ggml_backend_get_device, symObjAddr: 0x1570, symBinAddr: 0x4D6E0, symSize: 0x30 }
  - { offset: 0x1BF616, size: 0x8, addend: 0x0, symName: _ggml_backend_tensor_copy, symObjAddr: 0x15A0, symBinAddr: 0x4D710, symSize: 0x210 }
  - { offset: 0x1BF95A, size: 0x8, addend: 0x0, symName: _ggml_backend_tensor_copy_async, symObjAddr: 0x17B0, symBinAddr: 0x4D920, symSize: 0x150 }
  - { offset: 0x1BFAC7, size: 0x8, addend: 0x0, symName: _ggml_backend_event_new, symObjAddr: 0x1900, symBinAddr: 0x4DA70, symSize: 0x20 }
  - { offset: 0x1BFAF0, size: 0x8, addend: 0x0, symName: _ggml_backend_event_free, symObjAddr: 0x1920, symBinAddr: 0x4DA90, symSize: 0x20 }
  - { offset: 0x1BFB1B, size: 0x8, addend: 0x0, symName: _ggml_backend_event_record, symObjAddr: 0x1940, symBinAddr: 0x4DAB0, symSize: 0x60 }
  - { offset: 0x1BFB6A, size: 0x8, addend: 0x0, symName: _ggml_backend_event_synchronize, symObjAddr: 0x19A0, symBinAddr: 0x4DB10, symSize: 0x60 }
  - { offset: 0x1BFB7E, size: 0x8, addend: 0x0, symName: _ggml_backend_event_synchronize, symObjAddr: 0x19A0, symBinAddr: 0x4DB10, symSize: 0x60 }
  - { offset: 0x1BFBD7, size: 0x8, addend: 0x0, symName: _ggml_backend_event_wait, symObjAddr: 0x1A00, symBinAddr: 0x4DB70, symSize: 0x60 }
  - { offset: 0x1BFC3A, size: 0x8, addend: 0x0, symName: _ggml_backend_dev_name, symObjAddr: 0x1A60, symBinAddr: 0x4DBD0, symSize: 0x30 }
  - { offset: 0x1BFC8A, size: 0x8, addend: 0x0, symName: _ggml_backend_dev_description, symObjAddr: 0x1A90, symBinAddr: 0x4DC00, symSize: 0x30 }
  - { offset: 0x1BFCDA, size: 0x8, addend: 0x0, symName: _ggml_backend_dev_memory, symObjAddr: 0x1AC0, symBinAddr: 0x4DC30, symSize: 0x30 }
  - { offset: 0x1BFD34, size: 0x8, addend: 0x0, symName: _ggml_backend_dev_type, symObjAddr: 0x1AF0, symBinAddr: 0x4DC60, symSize: 0x30 }
  - { offset: 0x1BFD48, size: 0x8, addend: 0x0, symName: _ggml_backend_dev_type, symObjAddr: 0x1AF0, symBinAddr: 0x4DC60, symSize: 0x30 }
  - { offset: 0x1BFD8A, size: 0x8, addend: 0x0, symName: _ggml_backend_dev_get_props, symObjAddr: 0x1B20, symBinAddr: 0x4DC90, symSize: 0x30 }
  - { offset: 0x1BFDDD, size: 0x8, addend: 0x0, symName: _ggml_backend_dev_backend_reg, symObjAddr: 0x1B50, symBinAddr: 0x4DCC0, symSize: 0x30 }
  - { offset: 0x1BFE21, size: 0x8, addend: 0x0, symName: _ggml_backend_dev_init, symObjAddr: 0x1B80, symBinAddr: 0x4DCF0, symSize: 0x30 }
  - { offset: 0x1BFE6E, size: 0x8, addend: 0x0, symName: _ggml_backend_dev_host_buffer_type, symObjAddr: 0x1BB0, symBinAddr: 0x4DD20, symSize: 0x40 }
  - { offset: 0x1BFE82, size: 0x8, addend: 0x0, symName: _ggml_backend_dev_host_buffer_type, symObjAddr: 0x1BB0, symBinAddr: 0x4DD20, symSize: 0x40 }
  - { offset: 0x1BFED2, size: 0x8, addend: 0x0, symName: _ggml_backend_dev_buffer_from_host_ptr, symObjAddr: 0x1BF0, symBinAddr: 0x4DD60, symSize: 0x30 }
  - { offset: 0x1BFF41, size: 0x8, addend: 0x0, symName: _ggml_backend_reg_name, symObjAddr: 0x1C20, symBinAddr: 0x4DD90, symSize: 0x30 }
  - { offset: 0x1BFF55, size: 0x8, addend: 0x0, symName: _ggml_backend_reg_name, symObjAddr: 0x1C20, symBinAddr: 0x4DD90, symSize: 0x30 }
  - { offset: 0x1BFFA5, size: 0x8, addend: 0x0, symName: _ggml_backend_reg_dev_count, symObjAddr: 0x1C50, symBinAddr: 0x4DDC0, symSize: 0x30 }
  - { offset: 0x1BFFF5, size: 0x8, addend: 0x0, symName: _ggml_backend_reg_dev_get, symObjAddr: 0x1C80, symBinAddr: 0x4DDF0, symSize: 0x30 }
  - { offset: 0x1C0042, size: 0x8, addend: 0x0, symName: _ggml_backend_reg_get_proc_address, symObjAddr: 0x1CB0, symBinAddr: 0x4DE20, symSize: 0x40 }
  - { offset: 0x1C0056, size: 0x8, addend: 0x0, symName: _ggml_backend_reg_get_proc_address, symObjAddr: 0x1CB0, symBinAddr: 0x4DE20, symSize: 0x40 }
  - { offset: 0x1C00D0, size: 0x8, addend: 0x0, symName: _ggml_backend_multi_buffer_alloc_buffer, symObjAddr: 0x1CF0, symBinAddr: 0x4DE60, symSize: 0x120 }
  - { offset: 0x1C0209, size: 0x8, addend: 0x0, symName: __ZL37ggml_backend_multi_buffer_free_bufferP19ggml_backend_buffer, symObjAddr: 0x1E10, symBinAddr: 0x4DF80, symSize: 0xA0 }
  - { offset: 0x1C063C, size: 0x8, addend: 0x0, symName: _ggml_backend_sched_split_graph, symObjAddr: 0x1EB0, symBinAddr: 0x4E020, symSize: 0x2C90 }
  - { offset: 0x1C2F2D, size: 0x8, addend: 0x0, symName: __ZL38ggml_backend_sched_backend_id_from_curP18ggml_backend_schedP11ggml_tensor, symObjAddr: 0x4B40, symBinAddr: 0x50CB0, symSize: 0x3E0 }
  - { offset: 0x1C3233, size: 0x8, addend: 0x0, symName: __ZL35ggml_backend_sched_buffer_supportedP18ggml_backend_schedP11ggml_tensori, symObjAddr: 0x4F20, symBinAddr: 0x51090, symSize: 0x230 }
  - { offset: 0x1C35BE, size: 0x8, addend: 0x0, symName: __ZL38ggml_backend_sched_backend_from_bufferP18ggml_backend_schedPK11ggml_tensorS3_, symObjAddr: 0x8340, symBinAddr: 0x544B0, symSize: 0x130 }
  - { offset: 0x1C37D1, size: 0x8, addend: 0x0, symName: _ggml_backend_sched_new, symObjAddr: 0x5150, symBinAddr: 0x512C0, symSize: 0x530 }
  - { offset: 0x1C3CF0, size: 0x8, addend: 0x0, symName: _ggml_backend_sched_reset, symObjAddr: 0x5680, symBinAddr: 0x517F0, symSize: 0xA0 }
  - { offset: 0x1C3D54, size: 0x8, addend: 0x0, symName: _ggml_backend_sched_free, symObjAddr: 0x5720, symBinAddr: 0x51890, symSize: 0x130 }
  - { offset: 0x1C3EEE, size: 0x8, addend: 0x0, symName: _ggml_backend_sched_reserve, symObjAddr: 0x5850, symBinAddr: 0x519C0, symSize: 0x1E0 }
  - { offset: 0x1C4077, size: 0x8, addend: 0x0, symName: _ggml_backend_sched_synchronize, symObjAddr: 0x5A30, symBinAddr: 0x51BA0, symSize: 0xA0 }
  - { offset: 0x1C4156, size: 0x8, addend: 0x0, symName: _ggml_backend_sched_alloc_graph, symObjAddr: 0x5AD0, symBinAddr: 0x51C40, symSize: 0x240 }
  - { offset: 0x1C42FF, size: 0x8, addend: 0x0, symName: _ggml_backend_sched_graph_compute, symObjAddr: 0x5D10, symBinAddr: 0x51E80, symSize: 0xC0 }
  - { offset: 0x1C43EA, size: 0x8, addend: 0x0, symName: _ggml_backend_sched_graph_compute_async, symObjAddr: 0x5DD0, symBinAddr: 0x51F40, symSize: 0xEB0 }
  - { offset: 0x1C6139, size: 0x8, addend: 0x0, symName: __ZNSt3__16vectorIjNS_9allocatorIjEEE8__appendEm, symObjAddr: 0x8690, symBinAddr: 0x545E0, symSize: 0x150 }
  - { offset: 0x1C65BF, size: 0x8, addend: 0x0, symName: _ggml_backend_sched_set_eval_callback, symObjAddr: 0x6C80, symBinAddr: 0x52DF0, symSize: 0x40 }
  - { offset: 0x1C6621, size: 0x8, addend: 0x0, symName: _ggml_backend_sched_get_n_splits, symObjAddr: 0x6CC0, symBinAddr: 0x52E30, symSize: 0x40 }
  - { offset: 0x1C6665, size: 0x8, addend: 0x0, symName: _ggml_backend_sched_get_n_copies, symObjAddr: 0x6D00, symBinAddr: 0x52E70, symSize: 0x40 }
  - { offset: 0x1C66A9, size: 0x8, addend: 0x0, symName: _ggml_backend_sched_get_n_backends, symObjAddr: 0x6D40, symBinAddr: 0x52EB0, symSize: 0x30 }
  - { offset: 0x1C66ED, size: 0x8, addend: 0x0, symName: _ggml_backend_sched_get_backend, symObjAddr: 0x6D70, symBinAddr: 0x52EE0, symSize: 0x60 }
  - { offset: 0x1C6794, size: 0x8, addend: 0x0, symName: _ggml_backend_sched_get_buffer_type, symObjAddr: 0x6DD0, symBinAddr: 0x52F40, symSize: 0x80 }
  - { offset: 0x1C6851, size: 0x8, addend: 0x0, symName: _ggml_backend_sched_get_buffer_size, symObjAddr: 0x6E50, symBinAddr: 0x52FC0, symSize: 0x90 }
  - { offset: 0x1C6933, size: 0x8, addend: 0x0, symName: _ggml_backend_sched_set_tensor_backend, symObjAddr: 0x6EE0, symBinAddr: 0x53050, symSize: 0x130 }
  - { offset: 0x1C6AB8, size: 0x8, addend: 0x0, symName: _ggml_backend_sched_get_tensor_backend, symObjAddr: 0x7010, symBinAddr: 0x53180, symSize: 0xF0 }
  - { offset: 0x1C6BDD, size: 0x8, addend: 0x0, symName: _ggml_backend_view_init, symObjAddr: 0x7100, symBinAddr: 0x53270, symSize: 0x110 }
  - { offset: 0x1C6CF9, size: 0x8, addend: 0x0, symName: _ggml_backend_tensor_alloc, symObjAddr: 0x7210, symBinAddr: 0x53380, symSize: 0x230 }
  - { offset: 0x1C6F71, size: 0x8, addend: 0x0, symName: _ggml_backend_graph_copy, symObjAddr: 0x7440, symBinAddr: 0x535B0, symSize: 0x330 }
  - { offset: 0x1C73EC, size: 0x8, addend: 0x0, symName: __ZL21graph_copy_dup_tensor13ggml_hash_setPP11ggml_tensorP12ggml_contextS4_S1_, symObjAddr: 0x7770, symBinAddr: 0x538E0, symSize: 0x460 }
  - { offset: 0x1C7851, size: 0x8, addend: 0x0, symName: __ZL22graph_copy_init_tensorP13ggml_hash_setPP11ggml_tensorPbS2_, symObjAddr: 0x7BD0, symBinAddr: 0x53D40, symSize: 0x220 }
  - { offset: 0x1C7B30, size: 0x8, addend: 0x0, symName: _ggml_backend_graph_copy_free, symObjAddr: 0x7DF0, symBinAddr: 0x53F60, symSize: 0x40 }
  - { offset: 0x1C7BBE, size: 0x8, addend: 0x0, symName: _ggml_backend_graph_copy_free, symObjAddr: 0x7DF0, symBinAddr: 0x53F60, symSize: 0x40 }
  - { offset: 0x1C7CB5, size: 0x8, addend: 0x0, symName: _ggml_backend_compare_graph_backend, symObjAddr: 0x7E30, symBinAddr: 0x53FA0, symSize: 0x2E0 }
  - { offset: 0x1C830F, size: 0x8, addend: 0x0, symName: __ZL37ggml_backend_cpu_buffer_type_get_nameP24ggml_backend_buffer_type, symObjAddr: 0x8120, symBinAddr: 0x54290, symSize: 0x10 }
  - { offset: 0x1C833B, size: 0x8, addend: 0x0, symName: __ZL41ggml_backend_cpu_buffer_type_alloc_bufferP24ggml_backend_buffer_typem, symObjAddr: 0x8130, symBinAddr: 0x542A0, symSize: 0xA0 }
  - { offset: 0x1C840D, size: 0x8, addend: 0x0, symName: __ZL42ggml_backend_cpu_buffer_type_get_alignmentP24ggml_backend_buffer_type, symObjAddr: 0x81D0, symBinAddr: 0x54340, symSize: 0x10 }
  - { offset: 0x1C8439, size: 0x8, addend: 0x0, symName: __ZL36ggml_backend_cpu_buffer_type_is_hostP24ggml_backend_buffer_type, symObjAddr: 0x81E0, symBinAddr: 0x54350, symSize: 0x10 }
  - { offset: 0x1C8465, size: 0x8, addend: 0x0, symName: _ggml_backend_cpu_buffer_from_ptr, symObjAddr: 0x81F0, symBinAddr: 0x54360, symSize: 0xA0 }
  - { offset: 0x1C8515, size: 0x8, addend: 0x0, symName: __ZL31ggml_backend_multi_buffer_clearP19ggml_backend_bufferh, symObjAddr: 0x8290, symBinAddr: 0x54400, symSize: 0xB0 }
  - { offset: 0x1C8BC3, size: 0x8, addend: 0x0, symName: __ZL35ggml_backend_cpu_buffer_free_bufferP19ggml_backend_buffer, symObjAddr: 0x87F0, symBinAddr: 0x54730, symSize: 0x40 }
  - { offset: 0x1C8BCE, size: 0x8, addend: 0x0, symName: __ZL35ggml_backend_cpu_buffer_free_bufferP19ggml_backend_buffer, symObjAddr: 0x87F0, symBinAddr: 0x54730, symSize: 0x40 }
  - { offset: 0x1C8C33, size: 0x8, addend: 0x0, symName: __ZL32ggml_backend_cpu_buffer_get_baseP19ggml_backend_buffer, symObjAddr: 0x8830, symBinAddr: 0x54770, symSize: 0x40 }
  - { offset: 0x1C8C8C, size: 0x8, addend: 0x0, symName: __ZL37ggml_backend_cpu_buffer_memset_tensorP19ggml_backend_bufferP11ggml_tensorhmm, symObjAddr: 0x8870, symBinAddr: 0x547B0, symSize: 0x40 }
  - { offset: 0x1C8D0F, size: 0x8, addend: 0x0, symName: __ZL34ggml_backend_cpu_buffer_set_tensorP19ggml_backend_bufferP11ggml_tensorPKvmm, symObjAddr: 0x88B0, symBinAddr: 0x547F0, symSize: 0x40 }
  - { offset: 0x1C8D92, size: 0x8, addend: 0x0, symName: __ZL34ggml_backend_cpu_buffer_get_tensorP19ggml_backend_bufferPK11ggml_tensorPvmm, symObjAddr: 0x88F0, symBinAddr: 0x54830, symSize: 0x40 }
  - { offset: 0x1C8E15, size: 0x8, addend: 0x0, symName: __ZL34ggml_backend_cpu_buffer_cpy_tensorP19ggml_backend_bufferPK11ggml_tensorPS1_, symObjAddr: 0x8930, symBinAddr: 0x54870, symSize: 0xE0 }
  - { offset: 0x1C8F12, size: 0x8, addend: 0x0, symName: __ZL29ggml_backend_cpu_buffer_clearP19ggml_backend_bufferh, symObjAddr: 0x8A10, symBinAddr: 0x54950, symSize: 0x40 }
  - { offset: 0x1C8F67, size: 0x8, addend: 0x0, symName: __ZL46ggml_backend_cpu_buffer_from_ptr_type_get_nameP24ggml_backend_buffer_type, symObjAddr: 0x8A50, symBinAddr: 0x54990, symSize: 0xD }
  - { offset: 0x1CAE39, size: 0x8, addend: 0x0, symName: _ggml_opt_dataset_init, symObjAddr: 0x0, symBinAddr: 0x549A0, symSize: 0x2C0 }
  - { offset: 0x1D40DD, size: 0x8, addend: 0x0, symName: __ZNSt3__124uniform_int_distributionIlEclINS_23mersenne_twister_engineIjLm32ELm624ELm397ELm31ELj2567483615ELm11ELj4294967295ELm7ELj2636928640ELm15ELj4022730752ELm18ELj1812433253EEEEElRT_RKNS1_10param_typeE, symObjAddr: 0x4350, symBinAddr: 0x58AA0, symSize: 0x1F0 }
  - { offset: 0x1D4182, size: 0x8, addend: 0x0, symName: __ZNSt3__124uniform_int_distributionIlEclINS_23mersenne_twister_engineIjLm32ELm624ELm397ELm31ELj2567483615ELm11ELj4294967295ELm7ELj2636928640ELm15ELj4022730752ELm18ELj1812433253EEEEElRT_RKNS1_10param_typeE, symObjAddr: 0x4350, symBinAddr: 0x58AA0, symSize: 0x1F0 }
  - { offset: 0x1D44FA, size: 0x8, addend: 0x0, symName: _ggml_opt_dataset_init, symObjAddr: 0x0, symBinAddr: 0x549A0, symSize: 0x2C0 }
  - { offset: 0x1D4808, size: 0x8, addend: 0x0, symName: __ZNSt3__16vectorIxNS_9allocatorIxEEE8__appendEm, symObjAddr: 0x41F0, symBinAddr: 0x58940, symSize: 0x150 }
  - { offset: 0x1D4DDA, size: 0x8, addend: 0x0, symName: _ggml_opt_dataset_free, symObjAddr: 0x2C0, symBinAddr: 0x54C60, symSize: 0x40 }
  - { offset: 0x1D4FD5, size: 0x8, addend: 0x0, symName: _ggml_opt_dataset_ndata, symObjAddr: 0x300, symBinAddr: 0x54CA0, symSize: 0x10 }
  - { offset: 0x1D4FFE, size: 0x8, addend: 0x0, symName: _ggml_opt_dataset_data, symObjAddr: 0x310, symBinAddr: 0x54CB0, symSize: 0x10 }
  - { offset: 0x1D501B, size: 0x8, addend: 0x0, symName: _ggml_opt_dataset_labels, symObjAddr: 0x320, symBinAddr: 0x54CC0, symSize: 0x10 }
  - { offset: 0x1D51D3, size: 0x8, addend: 0x0, symName: _ggml_opt_dataset_shuffle, symObjAddr: 0x330, symBinAddr: 0x54CD0, symSize: 0x1E0 }
  - { offset: 0x1D5890, size: 0x8, addend: 0x0, symName: _ggml_opt_dataset_get_batch, symObjAddr: 0x510, symBinAddr: 0x54EB0, symSize: 0x2F0 }
  - { offset: 0x1D5B2A, size: 0x8, addend: 0x0, symName: _ggml_opt_dataset_get_batch_host, symObjAddr: 0x800, symBinAddr: 0x551A0, symSize: 0x270 }
  - { offset: 0x1D5C97, size: 0x8, addend: 0x0, symName: _ggml_opt_get_default_optimizer_params, symObjAddr: 0xA70, symBinAddr: 0x55410, symSize: 0x30 }
  - { offset: 0x1D5CCD, size: 0x8, addend: 0x0, symName: _ggml_opt_get_constant_optimizer_params, symObjAddr: 0xAA0, symBinAddr: 0x55440, symSize: 0x20 }
  - { offset: 0x1D5CF6, size: 0x8, addend: 0x0, symName: _ggml_opt_default_params, symObjAddr: 0xAC0, symBinAddr: 0x55460, symSize: 0x50 }
  - { offset: 0x1D608B, size: 0x8, addend: 0x0, symName: _ggml_opt_init, symObjAddr: 0xB10, symBinAddr: 0x554B0, symSize: 0x280 }
  - { offset: 0x1D6302, size: 0x8, addend: 0x0, symName: __ZL14ggml_opt_buildP16ggml_opt_context, symObjAddr: 0xD90, symBinAddr: 0x55730, symSize: 0xB20 }
  - { offset: 0x1D70E2, size: 0x8, addend: 0x0, symName: __ZNSt3__16vectorIP11ggml_tensorNS_9allocatorIS2_EEE8__appendEm, symObjAddr: 0x3A90, symBinAddr: 0x58430, symSize: 0x150 }
  - { offset: 0x1D777D, size: 0x8, addend: 0x0, symName: _ggml_opt_free, symObjAddr: 0x18B0, symBinAddr: 0x56250, symSize: 0x90 }
  - { offset: 0x1D7C3E, size: 0x8, addend: 0x0, symName: _ggml_opt_reset, symObjAddr: 0x1940, symBinAddr: 0x562E0, symSize: 0x40 }
  - { offset: 0x1D7C94, size: 0x8, addend: 0x0, symName: _ggml_opt_static_graphs, symObjAddr: 0x1980, symBinAddr: 0x56320, symSize: 0x10 }
  - { offset: 0x1D7CBF, size: 0x8, addend: 0x0, symName: _ggml_opt_inputs, symObjAddr: 0x1990, symBinAddr: 0x56330, symSize: 0x10 }
  - { offset: 0x1D7CDC, size: 0x8, addend: 0x0, symName: _ggml_opt_outputs, symObjAddr: 0x19A0, symBinAddr: 0x56340, symSize: 0x10 }
  - { offset: 0x1D7D07, size: 0x8, addend: 0x0, symName: _ggml_opt_labels, symObjAddr: 0x19B0, symBinAddr: 0x56350, symSize: 0x10 }
  - { offset: 0x1D7D32, size: 0x8, addend: 0x0, symName: _ggml_opt_loss, symObjAddr: 0x19C0, symBinAddr: 0x56360, symSize: 0x10 }
  - { offset: 0x1D7D5D, size: 0x8, addend: 0x0, symName: _ggml_opt_pred, symObjAddr: 0x19D0, symBinAddr: 0x56370, symSize: 0x10 }
  - { offset: 0x1D7D88, size: 0x8, addend: 0x0, symName: _ggml_opt_ncorrect, symObjAddr: 0x19E0, symBinAddr: 0x56380, symSize: 0x10 }
  - { offset: 0x1D7DB3, size: 0x8, addend: 0x0, symName: _ggml_opt_grad_acc, symObjAddr: 0x19F0, symBinAddr: 0x56390, symSize: 0x20 }
  - { offset: 0x1D7F04, size: 0x8, addend: 0x0, symName: _ggml_opt_result_init, symObjAddr: 0x1A10, symBinAddr: 0x563B0, symSize: 0x30 }
  - { offset: 0x1D81BB, size: 0x8, addend: 0x0, symName: _ggml_opt_result_free, symObjAddr: 0x1A40, symBinAddr: 0x563E0, symSize: 0x50 }
  - { offset: 0x1D854B, size: 0x8, addend: 0x0, symName: _ggml_opt_result_reset, symObjAddr: 0x1A90, symBinAddr: 0x56430, symSize: 0x30 }
  - { offset: 0x1D8670, size: 0x8, addend: 0x0, symName: _ggml_opt_result_ndata, symObjAddr: 0x1AC0, symBinAddr: 0x56460, symSize: 0x10 }
  - { offset: 0x1D86C8, size: 0x8, addend: 0x0, symName: _ggml_opt_result_loss, symObjAddr: 0x1AD0, symBinAddr: 0x56470, symSize: 0x100 }
  - { offset: 0x1D87B1, size: 0x8, addend: 0x0, symName: _ggml_opt_result_pred, symObjAddr: 0x1BD0, symBinAddr: 0x56570, symSize: 0xF0 }
  - { offset: 0x1D8809, size: 0x8, addend: 0x0, symName: _ggml_opt_result_accuracy, symObjAddr: 0x1CC0, symBinAddr: 0x56660, symSize: 0x80 }
  - { offset: 0x1D8836, size: 0x8, addend: 0x0, symName: _ggml_opt_prepare_alloc, symObjAddr: 0x1D40, symBinAddr: 0x566E0, symSize: 0x50 }
  - { offset: 0x1D8BBA, size: 0x8, addend: 0x0, symName: _ggml_opt_alloc, symObjAddr: 0x1D90, symBinAddr: 0x56730, symSize: 0x4C0 }
  - { offset: 0x1D91EE, size: 0x8, addend: 0x0, symName: __ZL10map_tensorRNSt3__13mapIP11ggml_tensorS2_NS_4lessIS2_EENS_9allocatorINS_4pairIKS2_S2_EEEEEEP12ggml_contextS2_, symObjAddr: 0x3CB0, symBinAddr: 0x58580, symSize: 0x380 }
  - { offset: 0x1D9AF5, size: 0x8, addend: 0x0, symName: __ZNSt3__16__treeINS_12__value_typeIP11ggml_tensorS3_EENS_19__map_value_compareIS3_S4_NS_4lessIS3_EELb1EEENS_9allocatorIS4_EEE7destroyEPNS_11__tree_nodeIS4_PvEE, symObjAddr: 0x41B0, symBinAddr: 0x58900, symSize: 0x40 }
  - { offset: 0x1DA135, size: 0x8, addend: 0x0, symName: _ggml_opt_eval, symObjAddr: 0x2250, symBinAddr: 0x56BF0, symSize: 0x7D0 }
  - { offset: 0x1DB5D7, size: 0x8, addend: 0x0, symName: _ggml_opt_epoch, symObjAddr: 0x2A20, symBinAddr: 0x573C0, symSize: 0x340 }
  - { offset: 0x1DBAD7, size: 0x8, addend: 0x0, symName: _ggml_opt_epoch_callback_progress_bar, symObjAddr: 0x2D60, symBinAddr: 0x57700, symSize: 0x620 }
  - { offset: 0x1DC050, size: 0x8, addend: 0x0, symName: _ggml_opt_fit, symObjAddr: 0x3380, symBinAddr: 0x57D20, symSize: 0x6D0 }
  - { offset: 0x1DD0A9, size: 0x8, addend: 0x0, symName: _ggml_opt_context_optimizer_type, symObjAddr: 0x3A50, symBinAddr: 0x583F0, symSize: 0x10 }
  - { offset: 0x1DD0D4, size: 0x8, addend: 0x0, symName: _ggml_opt_optimizer_name, symObjAddr: 0x3A60, symBinAddr: 0x58400, symSize: 0x30 }
  - { offset: 0x1DDCE7, size: 0x8, addend: 0x0, symName: __ZNKSt3__16vectorIxNS_9allocatorIxEEE20__throw_length_errorB8ne190102Ev, symObjAddr: 0x4340, symBinAddr: 0x58A90, symSize: 0x10 }
  - { offset: 0x1DDD11, size: 0x8, addend: 0x0, symName: __ZNSt3__124uniform_int_distributionIlEclINS_23mersenne_twister_engineIjLm32ELm624ELm397ELm31ELj2567483615ELm11ELj4294967295ELm7ELj2636928640ELm15ELj4022730752ELm18ELj1812433253EEEEElRT_RKNS1_10param_typeE, symObjAddr: 0x4350, symBinAddr: 0x58AA0, symSize: 0x1F0 }
  - { offset: 0x1DDDB4, size: 0x8, addend: 0x0, symName: __ZNSt3__125__independent_bits_engineINS_23mersenne_twister_engineIjLm32ELm624ELm397ELm31ELj2567483615ELm11ELj4294967295ELm7ELj2636928640ELm15ELj4022730752ELm18ELj1812433253EEEmE6__evalENS_17integral_constantIbLb1EEE, symObjAddr: 0x4540, symBinAddr: 0x58C90, symSize: 0x450 }
  - { offset: 0x1E043D, size: 0x8, addend: 0x0, symName: _quantize_row_q4_0_ref, symObjAddr: 0x0, symBinAddr: 0x590E0, symSize: 0x3D0 }
  - { offset: 0x1E044B, size: 0x8, addend: 0x0, symName: _quantize_row_q4_0_ref, symObjAddr: 0x0, symBinAddr: 0x590E0, symSize: 0x3D0 }
  - { offset: 0x1E0640, size: 0x8, addend: 0x0, symName: _quantize_row_q5_0_ref, symObjAddr: 0x760, symBinAddr: 0x59840, symSize: 0x600 }
  - { offset: 0x1E08AB, size: 0x8, addend: 0x0, symName: _quantize_row_mxfp4_ref, symObjAddr: 0x2090, symBinAddr: 0x5B170, symSize: 0xA60 }
  - { offset: 0x1E0A35, size: 0x8, addend: 0x0, symName: _dequantize_row_q4_0, symObjAddr: 0x2AF0, symBinAddr: 0x5BBD0, symSize: 0x210 }
  - { offset: 0x1E0BD4, size: 0x8, addend: 0x0, symName: _dequantize_row_q4_1, symObjAddr: 0x2D00, symBinAddr: 0x5BDE0, symSize: 0x270 }
  - { offset: 0x1E0DD5, size: 0x8, addend: 0x0, symName: _dequantize_row_q5_0, symObjAddr: 0x2F70, symBinAddr: 0x5C050, symSize: 0x3D0 }
  - { offset: 0x1E0F98, size: 0x8, addend: 0x0, symName: _dequantize_row_q5_1, symObjAddr: 0x3340, symBinAddr: 0x5C420, symSize: 0x430 }
  - { offset: 0x1E1171, size: 0x8, addend: 0x0, symName: _dequantize_row_q8_0, symObjAddr: 0x3770, symBinAddr: 0x5C850, symSize: 0x1A0 }
  - { offset: 0x1E12E7, size: 0x8, addend: 0x0, symName: _dequantize_row_mxfp4, symObjAddr: 0x3910, symBinAddr: 0x5C9F0, symSize: 0x3D0 }
  - { offset: 0x1E13EE, size: 0x8, addend: 0x0, symName: _iq2xs_init_impl, symObjAddr: 0x1EE10, symBinAddr: 0x77EF0, symSize: 0x6E0 }
  - { offset: 0x1E1412, size: 0x8, addend: 0x0, symName: _iq2xs_init_impl.kgrid_2bit_256, symObjAddr: 0x3B1F0, symBinAddr: 0x160A60, symSize: 0x0 }
  - { offset: 0x1E1429, size: 0x8, addend: 0x0, symName: _iq2xs_init_impl.kgrid_2bit_512, symObjAddr: 0x3B3F0, symBinAddr: 0x160C60, symSize: 0x0 }
  - { offset: 0x1E1440, size: 0x8, addend: 0x0, symName: _iq2xs_init_impl.kgrid_1bit_2048, symObjAddr: 0x3B7F0, symBinAddr: 0x161060, symSize: 0x0 }
  - { offset: 0x1E1457, size: 0x8, addend: 0x0, symName: _iq2xs_init_impl.kgrid_2bit_1024, symObjAddr: 0x3C7F0, symBinAddr: 0x162060, symSize: 0x0 }
  - { offset: 0x1E1A3C, size: 0x8, addend: 0x0, symName: _iq3xs_init_impl, symObjAddr: 0x23CF0, symBinAddr: 0x7CDD0, symSize: 0x560 }
  - { offset: 0x1E1A60, size: 0x8, addend: 0x0, symName: _iq3xs_init_impl.kgrid_256, symObjAddr: 0x3CFF0, symBinAddr: 0x162860, symSize: 0x0 }
  - { offset: 0x1E1A77, size: 0x8, addend: 0x0, symName: _iq3xs_init_impl.kgrid_512, symObjAddr: 0x3D1F0, symBinAddr: 0x162A60, symSize: 0x0 }
  - { offset: 0x1E1FC8, size: 0x8, addend: 0x0, symName: _kvalues_mxfp4, symObjAddr: 0x32D50, symBinAddr: 0x1585C0, symSize: 0x0 }
  - { offset: 0x1E2006, size: 0x8, addend: 0x0, symName: _iq2xxs_grid, symObjAddr: 0x32D60, symBinAddr: 0x1585D0, symSize: 0x0 }
  - { offset: 0x1E2045, size: 0x8, addend: 0x0, symName: _ksigns_iq2xs, symObjAddr: 0x33560, symBinAddr: 0x158DD0, symSize: 0x0 }
  - { offset: 0x1E2083, size: 0x8, addend: 0x0, symName: _iq2xs_grid, symObjAddr: 0x335E0, symBinAddr: 0x158E50, symSize: 0x0 }
  - { offset: 0x1E20A9, size: 0x8, addend: 0x0, symName: _iq2s_grid, symObjAddr: 0x345E0, symBinAddr: 0x159E50, symSize: 0x0 }
  - { offset: 0x1E20CF, size: 0x8, addend: 0x0, symName: _iq3xxs_grid, symObjAddr: 0x365E0, symBinAddr: 0x15BE50, symSize: 0x0 }
  - { offset: 0x1E210E, size: 0x8, addend: 0x0, symName: _iq3s_grid, symObjAddr: 0x369E0, symBinAddr: 0x15C250, symSize: 0x0 }
  - { offset: 0x1E2134, size: 0x8, addend: 0x0, symName: _iq1s_grid, symObjAddr: 0x371E0, symBinAddr: 0x15CA50, symSize: 0x0 }
  - { offset: 0x1E215A, size: 0x8, addend: 0x0, symName: _kvalues_iq4nl, symObjAddr: 0x3B1E0, symBinAddr: 0x160A50, symSize: 0x0 }
  - { offset: 0x1E2171, size: 0x8, addend: 0x0, symName: _iq2_data, symObjAddr: 0xB3EE0, symBinAddr: 0x2047C0, symSize: 0x0 }
  - { offset: 0x1E21E6, size: 0x8, addend: 0x0, symName: _iq3_data, symObjAddr: 0xB3F40, symBinAddr: 0x204820, symSize: 0x0 }
  - { offset: 0x1E2DCC, size: 0x8, addend: 0x0, symName: _quantize_row_q4_1_ref, symObjAddr: 0x3D0, symBinAddr: 0x594B0, symSize: 0x390 }
  - { offset: 0x1E2FA6, size: 0x8, addend: 0x0, symName: _quantize_row_q5_1_ref, symObjAddr: 0xD60, symBinAddr: 0x59E40, symSize: 0x560 }
  - { offset: 0x1E3190, size: 0x8, addend: 0x0, symName: _quantize_row_q8_0_ref, symObjAddr: 0x12C0, symBinAddr: 0x5A3A0, symSize: 0x630 }
  - { offset: 0x1E33B4, size: 0x8, addend: 0x0, symName: _quantize_row_q8_1_ref, symObjAddr: 0x18F0, symBinAddr: 0x5A9D0, symSize: 0x7A0 }
  - { offset: 0x1E3ACA, size: 0x8, addend: 0x0, symName: _quantize_row_q2_K_ref, symObjAddr: 0x3CE0, symBinAddr: 0x5CDC0, symSize: 0x1050 }
  - { offset: 0x1E4305, size: 0x8, addend: 0x0, symName: _dequantize_row_q2_K, symObjAddr: 0x4D30, symBinAddr: 0x5DE10, symSize: 0x750 }
  - { offset: 0x1E4C05, size: 0x8, addend: 0x0, symName: _quantize_q2_K, symObjAddr: 0x5480, symBinAddr: 0x5E560, symSize: 0x3330 }
  - { offset: 0x1E58AB, size: 0x8, addend: 0x0, symName: _quantize_row_q3_K_ref, symObjAddr: 0x87B0, symBinAddr: 0x61890, symSize: 0x1140 }
  - { offset: 0x1E5DF8, size: 0x8, addend: 0x0, symName: _dequantize_row_q3_K, symObjAddr: 0x98F0, symBinAddr: 0x629D0, symSize: 0x7E0 }
  - { offset: 0x1E6413, size: 0x8, addend: 0x0, symName: _quantize_q3_K, symObjAddr: 0xA0D0, symBinAddr: 0x631B0, symSize: 0x1730 }
  - { offset: 0x1E6C29, size: 0x8, addend: 0x0, symName: _quantize_row_q4_K_ref, symObjAddr: 0xB800, symBinAddr: 0x648E0, symSize: 0xD80 }
  - { offset: 0x1E71E4, size: 0x8, addend: 0x0, symName: _dequantize_row_q4_K, symObjAddr: 0xC580, symBinAddr: 0x65660, symSize: 0xAF0 }
  - { offset: 0x1E7738, size: 0x8, addend: 0x0, symName: _quantize_q4_K, symObjAddr: 0xD070, symBinAddr: 0x66150, symSize: 0x2880 }
  - { offset: 0x1E8224, size: 0x8, addend: 0x0, symName: _quantize_row_q5_K_ref, symObjAddr: 0xF8F0, symBinAddr: 0x689D0, symSize: 0xE40 }
  - { offset: 0x1E8833, size: 0x8, addend: 0x0, symName: _dequantize_row_q5_K, symObjAddr: 0x10730, symBinAddr: 0x69810, symSize: 0x950 }
  - { offset: 0x1E8DE8, size: 0x8, addend: 0x0, symName: _quantize_q5_K, symObjAddr: 0x11080, symBinAddr: 0x6A160, symSize: 0x2940 }
  - { offset: 0x1E9905, size: 0x8, addend: 0x0, symName: _quantize_row_q6_K_ref, symObjAddr: 0x139C0, symBinAddr: 0x6CAA0, symSize: 0xEA0 }
  - { offset: 0x1E9E63, size: 0x8, addend: 0x0, symName: _dequantize_row_q6_K, symObjAddr: 0x14860, symBinAddr: 0x6D940, symSize: 0x4A0 }
  - { offset: 0x1EA210, size: 0x8, addend: 0x0, symName: _quantize_q6_K, symObjAddr: 0x14D00, symBinAddr: 0x6DDE0, symSize: 0xFB0 }
  - { offset: 0x1EA96C, size: 0x8, addend: 0x0, symName: _quantize_q4_0, symObjAddr: 0x15CB0, symBinAddr: 0x6ED90, symSize: 0xE80 }
  - { offset: 0x1EB070, size: 0x8, addend: 0x0, symName: _quantize_q4_1, symObjAddr: 0x16B30, symBinAddr: 0x6FC10, symSize: 0x870 }
  - { offset: 0x1EB5BC, size: 0x8, addend: 0x0, symName: _quantize_q5_0, symObjAddr: 0x173A0, symBinAddr: 0x70480, symSize: 0xCB0 }
  - { offset: 0x1EBB84, size: 0x8, addend: 0x0, symName: _quantize_q5_1, symObjAddr: 0x18050, symBinAddr: 0x71130, symSize: 0xA60 }
  - { offset: 0x1EBFC7, size: 0x8, addend: 0x0, symName: _quantize_q8_0, symObjAddr: 0x18AB0, symBinAddr: 0x71B90, symSize: 0x60 }
  - { offset: 0x1EC08A, size: 0x8, addend: 0x0, symName: _quantize_mxfp4, symObjAddr: 0x18B10, symBinAddr: 0x71BF0, symSize: 0x30 }
  - { offset: 0x1EC137, size: 0x8, addend: 0x0, symName: _quantize_row_tq1_0_ref, symObjAddr: 0x18B40, symBinAddr: 0x71C20, symSize: 0x530 }
  - { offset: 0x1EC4EC, size: 0x8, addend: 0x0, symName: _quantize_row_tq2_0_ref, symObjAddr: 0x19070, symBinAddr: 0x72150, symSize: 0x2A0 }
  - { offset: 0x1EC772, size: 0x8, addend: 0x0, symName: _quantize_tq1_0, symObjAddr: 0x19310, symBinAddr: 0x723F0, symSize: 0x60 }
  - { offset: 0x1EC836, size: 0x8, addend: 0x0, symName: _quantize_tq2_0, symObjAddr: 0x19370, symBinAddr: 0x72450, symSize: 0x60 }
  - { offset: 0x1EC8FA, size: 0x8, addend: 0x0, symName: _dequantize_row_tq1_0, symObjAddr: 0x193D0, symBinAddr: 0x724B0, symSize: 0x1680 }
  - { offset: 0x1ECB77, size: 0x8, addend: 0x0, symName: _dequantize_row_tq2_0, symObjAddr: 0x1AA50, symBinAddr: 0x73B30, symSize: 0xED0 }
  - { offset: 0x1ECD4A, size: 0x8, addend: 0x0, symName: _dequantize_row_iq2_xxs, symObjAddr: 0x1B920, symBinAddr: 0x74A00, symSize: 0x510 }
  - { offset: 0x1ECF48, size: 0x8, addend: 0x0, symName: _dequantize_row_iq2_xs, symObjAddr: 0x1BE30, symBinAddr: 0x74F10, symSize: 0x310 }
  - { offset: 0x1ED11E, size: 0x8, addend: 0x0, symName: _dequantize_row_iq2_s, symObjAddr: 0x1C140, symBinAddr: 0x75220, symSize: 0x550 }
  - { offset: 0x1ED32C, size: 0x8, addend: 0x0, symName: _dequantize_row_iq3_xxs, symObjAddr: 0x1C690, symBinAddr: 0x75770, symSize: 0x530 }
  - { offset: 0x1ED552, size: 0x8, addend: 0x0, symName: _dequantize_row_iq3_s, symObjAddr: 0x1CBC0, symBinAddr: 0x75CA0, symSize: 0x9E0 }
  - { offset: 0x1ED7C3, size: 0x8, addend: 0x0, symName: _dequantize_row_iq1_s, symObjAddr: 0x1D5A0, symBinAddr: 0x76680, symSize: 0x260 }
  - { offset: 0x1ED9DF, size: 0x8, addend: 0x0, symName: _dequantize_row_iq1_m, symObjAddr: 0x1D800, symBinAddr: 0x768E0, symSize: 0x390 }
  - { offset: 0x1EDC2D, size: 0x8, addend: 0x0, symName: _dequantize_row_iq4_nl, symObjAddr: 0x1DB90, symBinAddr: 0x76C70, symSize: 0x410 }
  - { offset: 0x1EDDA1, size: 0x8, addend: 0x0, symName: _dequantize_row_iq4_xs, symObjAddr: 0x1DFA0, symBinAddr: 0x77080, symSize: 0x520 }
  - { offset: 0x1EDF5E, size: 0x8, addend: 0x0, symName: _quantize_row_q8_K_ref, symObjAddr: 0x1E4C0, symBinAddr: 0x775A0, symSize: 0x790 }
  - { offset: 0x1EE0ED, size: 0x8, addend: 0x0, symName: _dequantize_row_q8_K, symObjAddr: 0x1EC50, symBinAddr: 0x77D30, symSize: 0x1C0 }
  - { offset: 0x1EE23E, size: 0x8, addend: 0x0, symName: _iq2_compare_func, symObjAddr: 0x1F4F0, symBinAddr: 0x785D0, symSize: 0x30 }
  - { offset: 0x1EE296, size: 0x8, addend: 0x0, symName: _iq2xs_free_impl, symObjAddr: 0x1F520, symBinAddr: 0x78600, symSize: 0xF0 }
  - { offset: 0x1EE7EC, size: 0x8, addend: 0x0, symName: _quantize_iq2_xxs, symObjAddr: 0x1F610, symBinAddr: 0x786F0, symSize: 0x2100 }
  - { offset: 0x1EF298, size: 0x8, addend: 0x0, symName: _iq2_find_best_neighbour, symObjAddr: 0x2F510, symBinAddr: 0x885F0, symSize: 0x2B0 }
  - { offset: 0x1EF9D1, size: 0x8, addend: 0x0, symName: _quantize_iq2_xs, symObjAddr: 0x21710, symBinAddr: 0x7A7F0, symSize: 0x25E0 }
  - { offset: 0x1F03BF, size: 0x8, addend: 0x0, symName: _iq3_compare_func, symObjAddr: 0x24250, symBinAddr: 0x7D330, symSize: 0x30 }
  - { offset: 0x1F0417, size: 0x8, addend: 0x0, symName: _iq3xs_free_impl, symObjAddr: 0x24280, symBinAddr: 0x7D360, symSize: 0x90 }
  - { offset: 0x1F04A8, size: 0x8, addend: 0x0, symName: _quantize_iq3_xxs, symObjAddr: 0x24310, symBinAddr: 0x7D3F0, symSize: 0xB0 }
  - { offset: 0x1F059F, size: 0x8, addend: 0x0, symName: _quantize_row_iq3_xxs_impl, symObjAddr: 0x243C0, symBinAddr: 0x7D4A0, symSize: 0x1740 }
  - { offset: 0x1F12BE, size: 0x8, addend: 0x0, symName: _quantize_row_iq3_xxs_ref, symObjAddr: 0x25B00, symBinAddr: 0x7EBE0, symSize: 0x10 }
  - { offset: 0x1F186A, size: 0x8, addend: 0x0, symName: _quantize_iq3_s, symObjAddr: 0x25B10, symBinAddr: 0x7EBF0, symSize: 0x1A80 }
  - { offset: 0x1F220F, size: 0x8, addend: 0x0, symName: _quantize_row_iq3_s_ref, symObjAddr: 0x27590, symBinAddr: 0x80670, symSize: 0x20 }
  - { offset: 0x1F268D, size: 0x8, addend: 0x0, symName: _quantize_iq1_s, symObjAddr: 0x275B0, symBinAddr: 0x80690, symSize: 0x17D0 }
  - { offset: 0x1F2DDF, size: 0x8, addend: 0x0, symName: _iq1_find_best_neighbour2, symObjAddr: 0x2F7F0, symBinAddr: 0x888D0, symSize: 0x7C0 }
  - { offset: 0x1F3643, size: 0x8, addend: 0x0, symName: _quantize_iq1_m, symObjAddr: 0x28D80, symBinAddr: 0x81E60, symSize: 0x1EE0 }
  - { offset: 0x1F3E03, size: 0x8, addend: 0x0, symName: _quantize_iq4_nl, symObjAddr: 0x2AC60, symBinAddr: 0x83D40, symSize: 0x2A0 }
  - { offset: 0x1F3FC4, size: 0x8, addend: 0x0, symName: _quantize_row_iq4_nl_impl, symObjAddr: 0x2AF00, symBinAddr: 0x83FE0, symSize: 0xF30 }
  - { offset: 0x1F4891, size: 0x8, addend: 0x0, symName: _quantize_row_iq4_nl_ref, symObjAddr: 0x2BE30, symBinAddr: 0x84F10, symSize: 0xE0 }
  - { offset: 0x1F49C2, size: 0x8, addend: 0x0, symName: _quantize_iq4_xs, symObjAddr: 0x2BF10, symBinAddr: 0x84FF0, symSize: 0x2B0 }
  - { offset: 0x1F4BDB, size: 0x8, addend: 0x0, symName: _quantize_row_iq4_xs_ref, symObjAddr: 0x2C1C0, symBinAddr: 0x852A0, symSize: 0xE0 }
  - { offset: 0x1F519F, size: 0x8, addend: 0x0, symName: _quantize_iq2_s, symObjAddr: 0x2C2A0, symBinAddr: 0x85380, symSize: 0x22F0 }
  - { offset: 0x1F5B35, size: 0x8, addend: 0x0, symName: _quantize_row_iq2_s_ref, symObjAddr: 0x2E590, symBinAddr: 0x87670, symSize: 0x20 }
  - { offset: 0x1F5C96, size: 0x8, addend: 0x0, symName: _ggml_validate_row_data, symObjAddr: 0x2E5B0, symBinAddr: 0x87690, symSize: 0xF60 }
  - { offset: 0x1F6FB8, size: 0x8, addend: 0x0, symName: _iq1_sort_helper, symObjAddr: 0x2F7C0, symBinAddr: 0x888A0, symSize: 0x30 }
  - { offset: 0x1F7275, size: 0x8, addend: 0x0, symName: _ggml_critical_section_mutex, symObjAddr: 0x60, symBinAddr: 0x182308, symSize: 0x0 }
  - { offset: 0x1F7F6A, size: 0x8, addend: 0x0, symName: _ggml_critical_section_start, symObjAddr: 0x0, symBinAddr: 0x89090, symSize: 0x20 }
  - { offset: 0x1F7F80, size: 0x8, addend: 0x0, symName: _ggml_critical_section_end, symObjAddr: 0x20, symBinAddr: 0x890B0, symSize: 0x11 }
  - { offset: 0x1F7F9D, size: 0x8, addend: 0x0, symName: __GLOBAL__sub_I_ggml_threading.cpp, symObjAddr: 0x40, symBinAddr: 0x890D0, symSize: 0x1F }
  - { offset: 0x1F9EDD, size: 0x8, addend: 0x0, symName: _ggml_print_backtrace, symObjAddr: 0x0, symBinAddr: 0x890F0, symSize: 0x10 }
  - { offset: 0x1F9F5F, size: 0x8, addend: 0x0, symName: _ggml_init, symObjAddr: 0x1910, symBinAddr: 0x8AA00, symSize: 0x1E0 }
  - { offset: 0x1F9F87, size: 0x8, addend: 0x0, symName: _ggml_init.is_first_call, symObjAddr: 0x89140, symBinAddr: 0x204858, symSize: 0x0 }
  - { offset: 0x1FA132, size: 0x8, addend: 0x0, symName: _ggml_hash_size, symObjAddr: 0xEEE0, symBinAddr: 0x97FD0, symSize: 0x60 }
  - { offset: 0x1FA153, size: 0x8, addend: 0x0, symName: _ggml_hash_size.primes, symObjAddr: 0x19200, symBinAddr: 0x162FD0, symSize: 0x0 }
  - { offset: 0x1FA1C6, size: 0x8, addend: 0x0, symName: _g_abort_callback, symObjAddr: 0x89138, symBinAddr: 0x204850, symSize: 0x0 }
  - { offset: 0x1FA1FF, size: 0x8, addend: 0x0, symName: _type_traits, symObjAddr: 0x182D0, symBinAddr: 0x17F720, symSize: 0x0 }
  - { offset: 0x1FA335, size: 0x8, addend: 0x0, symName: _GGML_OP_NAME, symObjAddr: 0x18B90, symBinAddr: 0x17FFE0, symSize: 0x0 }
  - { offset: 0x1FA35A, size: 0x8, addend: 0x0, symName: _GGML_OP_SYMBOL, symObjAddr: 0x18E60, symBinAddr: 0x1802B0, symSize: 0x0 }
  - { offset: 0x1FA371, size: 0x8, addend: 0x0, symName: _GGML_UNARY_OP_NAME, symObjAddr: 0x19130, symBinAddr: 0x180580, symSize: 0x0 }
  - { offset: 0x1FA396, size: 0x8, addend: 0x0, symName: _GGML_GLU_OP_NAME, symObjAddr: 0x191B0, symBinAddr: 0x180600, symSize: 0x0 }
  - { offset: 0x1FA3BA, size: 0x8, addend: 0x0, symName: _g_logger_state.0, symObjAddr: 0x19398, symBinAddr: 0x182348, symSize: 0x0 }
  - { offset: 0x1FA3C5, size: 0x8, addend: 0x0, symName: _g_logger_state.1, symObjAddr: 0x89148, symBinAddr: 0x204860, symSize: 0x0 }
  - { offset: 0x1FAD08, size: 0x8, addend: 0x0, symName: _ggml_print_backtrace, symObjAddr: 0x0, symBinAddr: 0x890F0, symSize: 0x10 }
  - { offset: 0x1FAD1E, size: 0x8, addend: 0x0, symName: _ggml_set_abort_callback, symObjAddr: 0x10, symBinAddr: 0x89100, symSize: 0x20 }
  - { offset: 0x1FAD57, size: 0x8, addend: 0x0, symName: _ggml_abort, symObjAddr: 0x30, symBinAddr: 0x89120, symSize: 0x120 }
  - { offset: 0x1FB147, size: 0x8, addend: 0x0, symName: _ggml_log_internal, symObjAddr: 0x150, symBinAddr: 0x89240, symSize: 0x180 }
  - { offset: 0x1FB287, size: 0x8, addend: 0x0, symName: _ggml_log_callback_default, symObjAddr: 0x2D0, symBinAddr: 0x893C0, symSize: 0x30 }
  - { offset: 0x1FB30C, size: 0x8, addend: 0x0, symName: _ggml_aligned_malloc, symObjAddr: 0x300, symBinAddr: 0x893F0, symSize: 0xC0 }
  - { offset: 0x1FB3D3, size: 0x8, addend: 0x0, symName: _ggml_aligned_free, symObjAddr: 0x3C0, symBinAddr: 0x894B0, symSize: 0x10 }
  - { offset: 0x1FB40F, size: 0x8, addend: 0x0, symName: _ggml_status_to_string, symObjAddr: 0x3D0, symBinAddr: 0x894C0, symSize: 0x30 }
  - { offset: 0x1FB4ED, size: 0x8, addend: 0x0, symName: _ggml_fp16_to_fp32, symObjAddr: 0x400, symBinAddr: 0x894F0, symSize: 0x60 }
  - { offset: 0x1FB6CE, size: 0x8, addend: 0x0, symName: _ggml_fp32_to_fp16, symObjAddr: 0x460, symBinAddr: 0x89550, symSize: 0x80 }
  - { offset: 0x1FB84B, size: 0x8, addend: 0x0, symName: _ggml_bf16_to_fp32, symObjAddr: 0x4E0, symBinAddr: 0x895D0, symSize: 0x10 }
  - { offset: 0x1FB8F2, size: 0x8, addend: 0x0, symName: _ggml_fp32_to_bf16, symObjAddr: 0x4F0, symBinAddr: 0x895E0, symSize: 0x40 }
  - { offset: 0x1FB93C, size: 0x8, addend: 0x0, symName: _ggml_fp16_to_fp32_row, symObjAddr: 0x530, symBinAddr: 0x89620, symSize: 0x160 }
  - { offset: 0x1FBA50, size: 0x8, addend: 0x0, symName: _ggml_fp32_to_fp16_row, symObjAddr: 0x690, symBinAddr: 0x89780, symSize: 0x200 }
  - { offset: 0x1FBB72, size: 0x8, addend: 0x0, symName: _ggml_bf16_to_fp32_row, symObjAddr: 0x890, symBinAddr: 0x89980, symSize: 0x100 }
  - { offset: 0x1FBBE1, size: 0x8, addend: 0x0, symName: _ggml_fp32_to_bf16_row_ref, symObjAddr: 0x990, symBinAddr: 0x89A80, symSize: 0x120 }
  - { offset: 0x1FBC0D, size: 0x8, addend: 0x0, symName: _ggml_fp32_to_bf16_row_ref, symObjAddr: 0x990, symBinAddr: 0x89A80, symSize: 0x120 }
  - { offset: 0x1FBC35, size: 0x8, addend: 0x0, symName: _ggml_fp32_to_bf16_row, symObjAddr: 0xAB0, symBinAddr: 0x89BA0, symSize: 0x120 }
  - { offset: 0x1FBC99, size: 0x8, addend: 0x0, symName: _ggml_guid_matches, symObjAddr: 0xBD0, symBinAddr: 0x89CC0, symSize: 0x20 }
  - { offset: 0x1FBCD3, size: 0x8, addend: 0x0, symName: _ggml_version, symObjAddr: 0xBF0, symBinAddr: 0x89CE0, symSize: 0x10 }
  - { offset: 0x1FBCEE, size: 0x8, addend: 0x0, symName: _ggml_commit, symObjAddr: 0xC00, symBinAddr: 0x89CF0, symSize: 0x10 }
  - { offset: 0x1FBD09, size: 0x8, addend: 0x0, symName: _ggml_time_init, symObjAddr: 0xC10, symBinAddr: 0x89D00, symSize: 0x10 }
  - { offset: 0x1FBD20, size: 0x8, addend: 0x0, symName: _ggml_time_ms, symObjAddr: 0xC20, symBinAddr: 0x89D10, symSize: 0x50 }
  - { offset: 0x1FBDCA, size: 0x8, addend: 0x0, symName: _ggml_time_us, symObjAddr: 0xC70, symBinAddr: 0x89D60, symSize: 0x50 }
  - { offset: 0x1FBE12, size: 0x8, addend: 0x0, symName: _ggml_cycles, symObjAddr: 0xCC0, symBinAddr: 0x89DB0, symSize: 0x10 }
  - { offset: 0x1FBE4C, size: 0x8, addend: 0x0, symName: _ggml_cycles_per_ms, symObjAddr: 0xCD0, symBinAddr: 0x89DC0, symSize: 0x10 }
  - { offset: 0x1FBE67, size: 0x8, addend: 0x0, symName: _ggml_fopen, symObjAddr: 0xCE0, symBinAddr: 0x89DD0, symSize: 0x10 }
  - { offset: 0x1FBEC8, size: 0x8, addend: 0x0, symName: _ggml_get_type_traits, symObjAddr: 0xCF0, symBinAddr: 0x89DE0, symSize: 0x40 }
  - { offset: 0x1FBF0C, size: 0x8, addend: 0x0, symName: _ggml_print_object, symObjAddr: 0xD30, symBinAddr: 0x89E20, symSize: 0x30 }
  - { offset: 0x1FBF64, size: 0x8, addend: 0x0, symName: _ggml_print_objects, symObjAddr: 0xD60, symBinAddr: 0x89E50, symSize: 0x90 }
  - { offset: 0x1FC00B, size: 0x8, addend: 0x0, symName: _ggml_nelements, symObjAddr: 0xDF0, symBinAddr: 0x89EE0, symSize: 0x20 }
  - { offset: 0x1FC028, size: 0x8, addend: 0x0, symName: _ggml_nrows, symObjAddr: 0xE10, symBinAddr: 0x89F00, symSize: 0x20 }
  - { offset: 0x1FC08B, size: 0x8, addend: 0x0, symName: _ggml_nbytes, symObjAddr: 0xE30, symBinAddr: 0x89F20, symSize: 0xB0 }
  - { offset: 0x1FC112, size: 0x8, addend: 0x0, symName: _ggml_blck_size, symObjAddr: 0xEE0, symBinAddr: 0x89FD0, symSize: 0x20 }
  - { offset: 0x1FC12F, size: 0x8, addend: 0x0, symName: _ggml_type_size, symObjAddr: 0xF00, symBinAddr: 0x89FF0, symSize: 0x20 }
  - { offset: 0x1FC1BE, size: 0x8, addend: 0x0, symName: _ggml_nbytes_pad, symObjAddr: 0xF20, symBinAddr: 0x8A010, symSize: 0xB0 }
  - { offset: 0x1FC262, size: 0x8, addend: 0x0, symName: _ggml_row_size, symObjAddr: 0xFD0, symBinAddr: 0x8A0C0, symSize: 0x40 }
  - { offset: 0x1FC2BE, size: 0x8, addend: 0x0, symName: _ggml_type_sizef, symObjAddr: 0x1010, symBinAddr: 0x8A100, symSize: 0x50 }
  - { offset: 0x1FC2E9, size: 0x8, addend: 0x0, symName: _ggml_type_name, symObjAddr: 0x1060, symBinAddr: 0x8A150, symSize: 0x30 }
  - { offset: 0x1FC306, size: 0x8, addend: 0x0, symName: _ggml_is_quantized, symObjAddr: 0x1090, symBinAddr: 0x8A180, symSize: 0x20 }
  - { offset: 0x1FC323, size: 0x8, addend: 0x0, symName: _ggml_op_name, symObjAddr: 0x10B0, symBinAddr: 0x8A1A0, symSize: 0x20 }
  - { offset: 0x1FC340, size: 0x8, addend: 0x0, symName: _ggml_op_symbol, symObjAddr: 0x10D0, symBinAddr: 0x8A1C0, symSize: 0x20 }
  - { offset: 0x1FC35D, size: 0x8, addend: 0x0, symName: _ggml_unary_op_name, symObjAddr: 0x10F0, symBinAddr: 0x8A1E0, symSize: 0x20 }
  - { offset: 0x1FC37A, size: 0x8, addend: 0x0, symName: _ggml_glu_op_name, symObjAddr: 0x1110, symBinAddr: 0x8A200, symSize: 0x20 }
  - { offset: 0x1FC449, size: 0x8, addend: 0x0, symName: _ggml_op_desc, symObjAddr: 0x1130, symBinAddr: 0x8A220, symSize: 0x50 }
  - { offset: 0x1FC578, size: 0x8, addend: 0x0, symName: _ggml_get_unary_op, symObjAddr: 0x1180, symBinAddr: 0x8A270, symSize: 0x30 }
  - { offset: 0x1FC5D4, size: 0x8, addend: 0x0, symName: _ggml_get_glu_op, symObjAddr: 0x11B0, symBinAddr: 0x8A2A0, symSize: 0x30 }
  - { offset: 0x1FC630, size: 0x8, addend: 0x0, symName: _ggml_element_size, symObjAddr: 0x11E0, symBinAddr: 0x8A2D0, symSize: 0x20 }
  - { offset: 0x1FC663, size: 0x8, addend: 0x0, symName: _ggml_is_scalar, symObjAddr: 0x1200, symBinAddr: 0x8A2F0, symSize: 0x30 }
  - { offset: 0x1FC680, size: 0x8, addend: 0x0, symName: _ggml_is_vector, symObjAddr: 0x1230, symBinAddr: 0x8A320, symSize: 0x20 }
  - { offset: 0x1FC69D, size: 0x8, addend: 0x0, symName: _ggml_is_matrix, symObjAddr: 0x1250, symBinAddr: 0x8A340, symSize: 0x20 }
  - { offset: 0x1FC6BA, size: 0x8, addend: 0x0, symName: _ggml_is_3d, symObjAddr: 0x1270, symBinAddr: 0x8A360, symSize: 0x10 }
  - { offset: 0x1FC6D7, size: 0x8, addend: 0x0, symName: _ggml_n_dims, symObjAddr: 0x1280, symBinAddr: 0x8A370, symSize: 0x30 }
  - { offset: 0x1FC722, size: 0x8, addend: 0x0, symName: _ggml_ftype_to_ggml_type, symObjAddr: 0x12B0, symBinAddr: 0x8A3A0, symSize: 0x50 }
  - { offset: 0x1FC777, size: 0x8, addend: 0x0, symName: _ggml_tensor_overhead, symObjAddr: 0x1300, symBinAddr: 0x8A3F0, symSize: 0x10 }
  - { offset: 0x1FC792, size: 0x8, addend: 0x0, symName: _ggml_is_transposed, symObjAddr: 0x1310, symBinAddr: 0x8A400, symSize: 0x20 }
  - { offset: 0x1FC811, size: 0x8, addend: 0x0, symName: _ggml_is_contiguous, symObjAddr: 0x1330, symBinAddr: 0x8A420, symSize: 0xB0 }
  - { offset: 0x1FC8B2, size: 0x8, addend: 0x0, symName: _ggml_is_contiguous_0, symObjAddr: 0x13E0, symBinAddr: 0x8A4D0, symSize: 0xB0 }
  - { offset: 0x1FC934, size: 0x8, addend: 0x0, symName: _ggml_is_contiguous_1, symObjAddr: 0x1490, symBinAddr: 0x8A580, symSize: 0xA0 }
  - { offset: 0x1FC9B6, size: 0x8, addend: 0x0, symName: _ggml_is_contiguous_2, symObjAddr: 0x1530, symBinAddr: 0x8A620, symSize: 0xA0 }
  - { offset: 0x1FCA62, size: 0x8, addend: 0x0, symName: _ggml_is_contiguously_allocated, symObjAddr: 0x15D0, symBinAddr: 0x8A6C0, symSize: 0x110 }
  - { offset: 0x1FCB5B, size: 0x8, addend: 0x0, symName: _ggml_is_permuted, symObjAddr: 0x16E0, symBinAddr: 0x8A7D0, symSize: 0x30 }
  - { offset: 0x1FCB86, size: 0x8, addend: 0x0, symName: _ggml_is_contiguous_channels, symObjAddr: 0x1710, symBinAddr: 0x8A800, symSize: 0x40 }
  - { offset: 0x1FCBB9, size: 0x8, addend: 0x0, symName: _ggml_is_contiguous_rows, symObjAddr: 0x1750, symBinAddr: 0x8A840, symSize: 0x30 }
  - { offset: 0x1FCBEC, size: 0x8, addend: 0x0, symName: _ggml_is_empty, symObjAddr: 0x1780, symBinAddr: 0x8A870, symSize: 0x30 }
  - { offset: 0x1FCC22, size: 0x8, addend: 0x0, symName: _ggml_are_same_shape, symObjAddr: 0x17B0, symBinAddr: 0x8A8A0, symSize: 0x40 }
  - { offset: 0x1FCC47, size: 0x8, addend: 0x0, symName: _ggml_are_same_stride, symObjAddr: 0x17F0, symBinAddr: 0x8A8E0, symSize: 0x40 }
  - { offset: 0x1FCCAD, size: 0x8, addend: 0x0, symName: _ggml_can_repeat, symObjAddr: 0x1830, symBinAddr: 0x8A920, symSize: 0xE0 }
  - { offset: 0x1FCDE7, size: 0x8, addend: 0x0, symName: _ggml_reset, symObjAddr: 0x1AF0, symBinAddr: 0x8ABE0, symSize: 0x20 }
  - { offset: 0x1FCE33, size: 0x8, addend: 0x0, symName: _ggml_free, symObjAddr: 0x1B10, symBinAddr: 0x8AC00, symSize: 0x40 }
  - { offset: 0x1FCEA7, size: 0x8, addend: 0x0, symName: _ggml_used_mem, symObjAddr: 0x1B50, symBinAddr: 0x8AC40, symSize: 0x20 }
  - { offset: 0x1FCED2, size: 0x8, addend: 0x0, symName: _ggml_get_no_alloc, symObjAddr: 0x1B70, symBinAddr: 0x8AC60, symSize: 0x10 }
  - { offset: 0x1FCEFD, size: 0x8, addend: 0x0, symName: _ggml_set_no_alloc, symObjAddr: 0x1B80, symBinAddr: 0x8AC70, symSize: 0x10 }
  - { offset: 0x1FCF33, size: 0x8, addend: 0x0, symName: _ggml_get_mem_buffer, symObjAddr: 0x1B90, symBinAddr: 0x8AC80, symSize: 0x10 }
  - { offset: 0x1FCF5E, size: 0x8, addend: 0x0, symName: _ggml_get_mem_size, symObjAddr: 0x1BA0, symBinAddr: 0x8AC90, symSize: 0x10 }
  - { offset: 0x1FD081, size: 0x8, addend: 0x0, symName: _ggml_get_max_tensor_size, symObjAddr: 0x1BB0, symBinAddr: 0x8ACA0, symSize: 0x140 }
  - { offset: 0x1FD0D9, size: 0x8, addend: 0x0, symName: _ggml_get_max_tensor_size, symObjAddr: 0x1BB0, symBinAddr: 0x8ACA0, symSize: 0x140 }
  - { offset: 0x1FD1CE, size: 0x8, addend: 0x0, symName: _ggml_get_first_tensor, symObjAddr: 0x1CF0, symBinAddr: 0x8ADE0, symSize: 0x40 }
  - { offset: 0x1FD1FF, size: 0x8, addend: 0x0, symName: _ggml_get_next_tensor, symObjAddr: 0x1D30, symBinAddr: 0x8AE20, symSize: 0x40 }
  - { offset: 0x1FD238, size: 0x8, addend: 0x0, symName: _ggml_new_tensor, symObjAddr: 0x1D70, symBinAddr: 0x8AE60, symSize: 0x10 }
  - { offset: 0x1FD2A8, size: 0x8, addend: 0x0, symName: _ggml_new_tensor_impl, symObjAddr: 0x1D80, symBinAddr: 0x8AE70, symSize: 0x5E0 }
  - { offset: 0x1FD6A3, size: 0x8, addend: 0x0, symName: _ggml_new_tensor_1d, symObjAddr: 0x2360, symBinAddr: 0x8B450, symSize: 0x30 }
  - { offset: 0x1FD746, size: 0x8, addend: 0x0, symName: _ggml_new_tensor_2d, symObjAddr: 0x2390, symBinAddr: 0x8B480, symSize: 0x50 }
  - { offset: 0x1FD800, size: 0x8, addend: 0x0, symName: _ggml_new_tensor_3d, symObjAddr: 0x23E0, symBinAddr: 0x8B4D0, symSize: 0x60 }
  - { offset: 0x1FD8C4, size: 0x8, addend: 0x0, symName: _ggml_new_tensor_4d, symObjAddr: 0x2440, symBinAddr: 0x8B530, symSize: 0x60 }
  - { offset: 0x1FD992, size: 0x8, addend: 0x0, symName: _ggml_new_buffer, symObjAddr: 0x24A0, symBinAddr: 0x8B590, symSize: 0xC0 }
  - { offset: 0x1FDA65, size: 0x8, addend: 0x0, symName: _ggml_dup_tensor, symObjAddr: 0x2560, symBinAddr: 0x8B650, symSize: 0x20 }
  - { offset: 0x1FDAEB, size: 0x8, addend: 0x0, symName: _ggml_unravel_index, symObjAddr: 0x2580, symBinAddr: 0x8B670, symSize: 0xC0 }
  - { offset: 0x1FDBD2, size: 0x8, addend: 0x0, symName: _ggml_get_data, symObjAddr: 0x2640, symBinAddr: 0x8B730, symSize: 0x10 }
  - { offset: 0x1FDBFD, size: 0x8, addend: 0x0, symName: _ggml_get_data_f32, symObjAddr: 0x2650, symBinAddr: 0x8B740, symSize: 0x10 }
  - { offset: 0x1FDC28, size: 0x8, addend: 0x0, symName: _ggml_get_name, symObjAddr: 0x2660, symBinAddr: 0x8B750, symSize: 0x10 }
  - { offset: 0x1FDC45, size: 0x8, addend: 0x0, symName: _ggml_set_name, symObjAddr: 0x2670, symBinAddr: 0x8B760, symSize: 0x70 }
  - { offset: 0x1FDC92, size: 0x8, addend: 0x0, symName: _ggml_format_name, symObjAddr: 0x26E0, symBinAddr: 0x8B7D0, symSize: 0xD0 }
  - { offset: 0x1FDCE1, size: 0x8, addend: 0x0, symName: _ggml_view_tensor, symObjAddr: 0x27B0, symBinAddr: 0x8B8A0, symSize: 0x70 }
  - { offset: 0x1FDD75, size: 0x8, addend: 0x0, symName: _ggml_get_tensor, symObjAddr: 0x2820, symBinAddr: 0x8B910, symSize: 0x60 }
  - { offset: 0x1FDE8C, size: 0x8, addend: 0x0, symName: _ggml_dup, symObjAddr: 0x2880, symBinAddr: 0x8B970, symSize: 0x40 }
  - { offset: 0x1FDFD9, size: 0x8, addend: 0x0, symName: _ggml_dup_inplace, symObjAddr: 0x28C0, symBinAddr: 0x8B9B0, symSize: 0x80 }
  - { offset: 0x1FE0E7, size: 0x8, addend: 0x0, symName: _ggml_add, symObjAddr: 0x2940, symBinAddr: 0x8BA30, symSize: 0x10 }
  - { offset: 0x1FE15D, size: 0x8, addend: 0x0, symName: _ggml_add_impl, symObjAddr: 0x2950, symBinAddr: 0x8BA40, symSize: 0x1D0 }
  - { offset: 0x1FE383, size: 0x8, addend: 0x0, symName: _ggml_add_inplace, symObjAddr: 0x2B20, symBinAddr: 0x8BC10, symSize: 0x10 }
  - { offset: 0x1FE48E, size: 0x8, addend: 0x0, symName: _ggml_add_cast, symObjAddr: 0x2B30, symBinAddr: 0x8BC20, symSize: 0x170 }
  - { offset: 0x1FE689, size: 0x8, addend: 0x0, symName: _ggml_add_id, symObjAddr: 0x2CA0, symBinAddr: 0x8BD90, symSize: 0x100 }
  - { offset: 0x1FE7C7, size: 0x8, addend: 0x0, symName: _ggml_add1, symObjAddr: 0x2DA0, symBinAddr: 0x8BE90, symSize: 0x10 }
  - { offset: 0x1FE7DB, size: 0x8, addend: 0x0, symName: _ggml_add1, symObjAddr: 0x2DA0, symBinAddr: 0x8BE90, symSize: 0x10 }
  - { offset: 0x1FE851, size: 0x8, addend: 0x0, symName: _ggml_add1_impl, symObjAddr: 0x2DB0, symBinAddr: 0x8BEA0, symSize: 0x150 }
  - { offset: 0x1FEA60, size: 0x8, addend: 0x0, symName: _ggml_add1_inplace, symObjAddr: 0x2F00, symBinAddr: 0x8BFF0, symSize: 0x10 }
  - { offset: 0x1FEAD6, size: 0x8, addend: 0x0, symName: _ggml_acc, symObjAddr: 0x2F10, symBinAddr: 0x8C000, symSize: 0x20 }
  - { offset: 0x1FEBA7, size: 0x8, addend: 0x0, symName: _ggml_acc_impl, symObjAddr: 0x2F30, symBinAddr: 0x8C020, symSize: 0x260 }
  - { offset: 0x1FEF01, size: 0x8, addend: 0x0, symName: _ggml_acc_inplace, symObjAddr: 0x3190, symBinAddr: 0x8C280, symSize: 0x20 }
  - { offset: 0x1FEFD2, size: 0x8, addend: 0x0, symName: _ggml_sub, symObjAddr: 0x31B0, symBinAddr: 0x8C2A0, symSize: 0x10 }
  - { offset: 0x1FF048, size: 0x8, addend: 0x0, symName: _ggml_sub_impl, symObjAddr: 0x31C0, symBinAddr: 0x8C2B0, symSize: 0x1D0 }
  - { offset: 0x1FF245, size: 0x8, addend: 0x0, symName: _ggml_sub_inplace, symObjAddr: 0x3390, symBinAddr: 0x8C480, symSize: 0x10 }
  - { offset: 0x1FF2BB, size: 0x8, addend: 0x0, symName: _ggml_mul, symObjAddr: 0x33A0, symBinAddr: 0x8C490, symSize: 0x10 }
  - { offset: 0x1FF315, size: 0x8, addend: 0x0, symName: _ggml_mul_impl, symObjAddr: 0x33B0, symBinAddr: 0x8C4A0, symSize: 0x1D0 }
  - { offset: 0x1FF512, size: 0x8, addend: 0x0, symName: _ggml_mul_inplace, symObjAddr: 0x3580, symBinAddr: 0x8C670, symSize: 0x10 }
  - { offset: 0x1FF588, size: 0x8, addend: 0x0, symName: _ggml_div, symObjAddr: 0x3590, symBinAddr: 0x8C680, symSize: 0x10 }
  - { offset: 0x1FF5E2, size: 0x8, addend: 0x0, symName: _ggml_div_impl, symObjAddr: 0x35A0, symBinAddr: 0x8C690, symSize: 0x1D0 }
  - { offset: 0x1FF7DF, size: 0x8, addend: 0x0, symName: _ggml_div_inplace, symObjAddr: 0x3770, symBinAddr: 0x8C860, symSize: 0x10 }
  - { offset: 0x1FF898, size: 0x8, addend: 0x0, symName: _ggml_sqr, symObjAddr: 0x3780, symBinAddr: 0x8C870, symSize: 0x40 }
  - { offset: 0x1FF99F, size: 0x8, addend: 0x0, symName: _ggml_sqr_inplace, symObjAddr: 0x37C0, symBinAddr: 0x8C8B0, symSize: 0x80 }
  - { offset: 0x1FFAF0, size: 0x8, addend: 0x0, symName: _ggml_sqrt, symObjAddr: 0x3840, symBinAddr: 0x8C930, symSize: 0x40 }
  - { offset: 0x1FFBF7, size: 0x8, addend: 0x0, symName: _ggml_sqrt_inplace, symObjAddr: 0x3880, symBinAddr: 0x8C970, symSize: 0x80 }
  - { offset: 0x1FFD48, size: 0x8, addend: 0x0, symName: _ggml_log, symObjAddr: 0x3900, symBinAddr: 0x8C9F0, symSize: 0x40 }
  - { offset: 0x1FFE4F, size: 0x8, addend: 0x0, symName: _ggml_log_inplace, symObjAddr: 0x3940, symBinAddr: 0x8CA30, symSize: 0x80 }
  - { offset: 0x1FFFA0, size: 0x8, addend: 0x0, symName: _ggml_sin, symObjAddr: 0x39C0, symBinAddr: 0x8CAB0, symSize: 0x40 }
  - { offset: 0x200092, size: 0x8, addend: 0x0, symName: _ggml_sin_inplace, symObjAddr: 0x3A00, symBinAddr: 0x8CAF0, symSize: 0x80 }
  - { offset: 0x2001E3, size: 0x8, addend: 0x0, symName: _ggml_cos, symObjAddr: 0x3A80, symBinAddr: 0x8CB70, symSize: 0x40 }
  - { offset: 0x2002D5, size: 0x8, addend: 0x0, symName: _ggml_cos_inplace, symObjAddr: 0x3AC0, symBinAddr: 0x8CBB0, symSize: 0x80 }
  - { offset: 0x200419, size: 0x8, addend: 0x0, symName: _ggml_sum, symObjAddr: 0x3B40, symBinAddr: 0x8CC30, symSize: 0x40 }
  - { offset: 0x200500, size: 0x8, addend: 0x0, symName: _ggml_sum_rows, symObjAddr: 0x3B80, symBinAddr: 0x8CC70, symSize: 0x80 }
  - { offset: 0x2005E7, size: 0x8, addend: 0x0, symName: _ggml_mean, symObjAddr: 0x3C00, symBinAddr: 0x8CCF0, symSize: 0x80 }
  - { offset: 0x2006AC, size: 0x8, addend: 0x0, symName: _ggml_argmax, symObjAddr: 0x3C80, symBinAddr: 0x8CD70, symSize: 0xA0 }
  - { offset: 0x200807, size: 0x8, addend: 0x0, symName: _ggml_count_equal, symObjAddr: 0x3D20, symBinAddr: 0x8CE10, symSize: 0xA0 }
  - { offset: 0x20093D, size: 0x8, addend: 0x0, symName: _ggml_repeat, symObjAddr: 0x3DC0, symBinAddr: 0x8CEB0, symSize: 0x150 }
  - { offset: 0x200B16, size: 0x8, addend: 0x0, symName: _ggml_repeat_4d, symObjAddr: 0x3F10, symBinAddr: 0x8D000, symSize: 0x180 }
  - { offset: 0x200CBB, size: 0x8, addend: 0x0, symName: _ggml_repeat_back, symObjAddr: 0x4090, symBinAddr: 0x8D180, symSize: 0x150 }
  - { offset: 0x200E4A, size: 0x8, addend: 0x0, symName: _ggml_concat, symObjAddr: 0x41E0, symBinAddr: 0x8D2D0, symSize: 0x180 }
  - { offset: 0x201058, size: 0x8, addend: 0x0, symName: _ggml_abs, symObjAddr: 0x4360, symBinAddr: 0x8D450, symSize: 0xF0 }
  - { offset: 0x20121D, size: 0x8, addend: 0x0, symName: _ggml_unary, symObjAddr: 0x4450, symBinAddr: 0x8D540, symSize: 0xF0 }
  - { offset: 0x2013DE, size: 0x8, addend: 0x0, symName: _ggml_abs_inplace, symObjAddr: 0x4540, symBinAddr: 0x8D630, symSize: 0x10 }
  - { offset: 0x20143D, size: 0x8, addend: 0x0, symName: _ggml_unary_inplace, symObjAddr: 0x4550, symBinAddr: 0x8D640, symSize: 0x140 }
  - { offset: 0x201621, size: 0x8, addend: 0x0, symName: _ggml_sgn, symObjAddr: 0x4690, symBinAddr: 0x8D780, symSize: 0xF0 }
  - { offset: 0x2017EE, size: 0x8, addend: 0x0, symName: _ggml_sgn_inplace, symObjAddr: 0x4780, symBinAddr: 0x8D870, symSize: 0x10 }
  - { offset: 0x20184D, size: 0x8, addend: 0x0, symName: _ggml_neg, symObjAddr: 0x4790, symBinAddr: 0x8D880, symSize: 0xF0 }
  - { offset: 0x201A05, size: 0x8, addend: 0x0, symName: _ggml_neg_inplace, symObjAddr: 0x4880, symBinAddr: 0x8D970, symSize: 0x10 }
  - { offset: 0x201A64, size: 0x8, addend: 0x0, symName: _ggml_step, symObjAddr: 0x4890, symBinAddr: 0x8D980, symSize: 0xF0 }
  - { offset: 0x201C31, size: 0x8, addend: 0x0, symName: _ggml_step_inplace, symObjAddr: 0x4980, symBinAddr: 0x8DA70, symSize: 0x10 }
  - { offset: 0x201C90, size: 0x8, addend: 0x0, symName: _ggml_tanh, symObjAddr: 0x4990, symBinAddr: 0x8DA80, symSize: 0xF0 }
  - { offset: 0x201E5D, size: 0x8, addend: 0x0, symName: _ggml_tanh_inplace, symObjAddr: 0x4A80, symBinAddr: 0x8DB70, symSize: 0x10 }
  - { offset: 0x201EBC, size: 0x8, addend: 0x0, symName: _ggml_elu, symObjAddr: 0x4A90, symBinAddr: 0x8DB80, symSize: 0xF0 }
  - { offset: 0x202089, size: 0x8, addend: 0x0, symName: _ggml_elu_inplace, symObjAddr: 0x4B80, symBinAddr: 0x8DC70, symSize: 0x10 }
  - { offset: 0x2020E8, size: 0x8, addend: 0x0, symName: _ggml_relu, symObjAddr: 0x4B90, symBinAddr: 0x8DC80, symSize: 0xF0 }
  - { offset: 0x2022B5, size: 0x8, addend: 0x0, symName: _ggml_relu_inplace, symObjAddr: 0x4C80, symBinAddr: 0x8DD70, symSize: 0x10 }
  - { offset: 0x202314, size: 0x8, addend: 0x0, symName: _ggml_leaky_relu, symObjAddr: 0x4C90, symBinAddr: 0x8DD80, symSize: 0xD0 }
  - { offset: 0x2024C2, size: 0x8, addend: 0x0, symName: _ggml_sigmoid, symObjAddr: 0x4D60, symBinAddr: 0x8DE50, symSize: 0xF0 }
  - { offset: 0x20268F, size: 0x8, addend: 0x0, symName: _ggml_sigmoid_inplace, symObjAddr: 0x4E50, symBinAddr: 0x8DF40, symSize: 0x10 }
  - { offset: 0x2026EE, size: 0x8, addend: 0x0, symName: _ggml_gelu, symObjAddr: 0x4E60, symBinAddr: 0x8DF50, symSize: 0xF0 }
  - { offset: 0x2028BB, size: 0x8, addend: 0x0, symName: _ggml_gelu_inplace, symObjAddr: 0x4F50, symBinAddr: 0x8E040, symSize: 0x10 }
  - { offset: 0x20291A, size: 0x8, addend: 0x0, symName: _ggml_gelu_erf, symObjAddr: 0x4F60, symBinAddr: 0x8E050, symSize: 0xF0 }
  - { offset: 0x202AE7, size: 0x8, addend: 0x0, symName: _ggml_gelu_erf_inplace, symObjAddr: 0x5050, symBinAddr: 0x8E140, symSize: 0x10 }
  - { offset: 0x202B46, size: 0x8, addend: 0x0, symName: _ggml_gelu_quick, symObjAddr: 0x5060, symBinAddr: 0x8E150, symSize: 0xF0 }
  - { offset: 0x202D13, size: 0x8, addend: 0x0, symName: _ggml_gelu_quick_inplace, symObjAddr: 0x5150, symBinAddr: 0x8E240, symSize: 0x10 }
  - { offset: 0x202D72, size: 0x8, addend: 0x0, symName: _ggml_silu, symObjAddr: 0x5160, symBinAddr: 0x8E250, symSize: 0xF0 }
  - { offset: 0x202F2A, size: 0x8, addend: 0x0, symName: _ggml_silu_inplace, symObjAddr: 0x5250, symBinAddr: 0x8E340, symSize: 0x10 }
  - { offset: 0x202FD1, size: 0x8, addend: 0x0, symName: _ggml_xielu, symObjAddr: 0x5260, symBinAddr: 0x8E350, symSize: 0xD0 }
  - { offset: 0x203220, size: 0x8, addend: 0x0, symName: _ggml_silu_back, symObjAddr: 0x5330, symBinAddr: 0x8E420, symSize: 0x40 }
  - { offset: 0x2032EA, size: 0x8, addend: 0x0, symName: _ggml_hardswish, symObjAddr: 0x5370, symBinAddr: 0x8E460, symSize: 0xF0 }
  - { offset: 0x2034B7, size: 0x8, addend: 0x0, symName: _ggml_hardsigmoid, symObjAddr: 0x5460, symBinAddr: 0x8E550, symSize: 0xF0 }
  - { offset: 0x203684, size: 0x8, addend: 0x0, symName: _ggml_exp, symObjAddr: 0x5550, symBinAddr: 0x8E640, symSize: 0xF0 }
  - { offset: 0x203851, size: 0x8, addend: 0x0, symName: _ggml_exp_inplace, symObjAddr: 0x5640, symBinAddr: 0x8E730, symSize: 0x10 }
  - { offset: 0x2038B0, size: 0x8, addend: 0x0, symName: _ggml_glu, symObjAddr: 0x5650, symBinAddr: 0x8E740, symSize: 0x20 }
  - { offset: 0x203941, size: 0x8, addend: 0x0, symName: _ggml_glu_impl, symObjAddr: 0x5670, symBinAddr: 0x8E760, symSize: 0x2D0 }
  - { offset: 0x203BF3, size: 0x8, addend: 0x0, symName: _ggml_glu_split, symObjAddr: 0x5940, symBinAddr: 0x8EA30, symSize: 0x10 }
  - { offset: 0x203C80, size: 0x8, addend: 0x0, symName: _ggml_reglu, symObjAddr: 0x5950, symBinAddr: 0x8EA40, symSize: 0x20 }
  - { offset: 0x203CEB, size: 0x8, addend: 0x0, symName: _ggml_reglu_swapped, symObjAddr: 0x5970, symBinAddr: 0x8EA60, symSize: 0x20 }
  - { offset: 0x203D56, size: 0x8, addend: 0x0, symName: _ggml_reglu_split, symObjAddr: 0x5990, symBinAddr: 0x8EA80, symSize: 0x10 }
  - { offset: 0x203DD2, size: 0x8, addend: 0x0, symName: _ggml_geglu, symObjAddr: 0x59A0, symBinAddr: 0x8EA90, symSize: 0x20 }
  - { offset: 0x203E3D, size: 0x8, addend: 0x0, symName: _ggml_geglu_swapped, symObjAddr: 0x59C0, symBinAddr: 0x8EAB0, symSize: 0x20 }
  - { offset: 0x203EA8, size: 0x8, addend: 0x0, symName: _ggml_geglu_split, symObjAddr: 0x59E0, symBinAddr: 0x8EAD0, symSize: 0x20 }
  - { offset: 0x203F24, size: 0x8, addend: 0x0, symName: _ggml_swiglu, symObjAddr: 0x5A00, symBinAddr: 0x8EAF0, symSize: 0x20 }
  - { offset: 0x203F8F, size: 0x8, addend: 0x0, symName: _ggml_swiglu_swapped, symObjAddr: 0x5A20, symBinAddr: 0x8EB10, symSize: 0x20 }
  - { offset: 0x203FFA, size: 0x8, addend: 0x0, symName: _ggml_swiglu_split, symObjAddr: 0x5A40, symBinAddr: 0x8EB30, symSize: 0x20 }
  - { offset: 0x204076, size: 0x8, addend: 0x0, symName: _ggml_geglu_erf, symObjAddr: 0x5A60, symBinAddr: 0x8EB50, symSize: 0x20 }
  - { offset: 0x2040E1, size: 0x8, addend: 0x0, symName: _ggml_geglu_erf_swapped, symObjAddr: 0x5A80, symBinAddr: 0x8EB70, symSize: 0x20 }
  - { offset: 0x20414C, size: 0x8, addend: 0x0, symName: _ggml_geglu_erf_split, symObjAddr: 0x5AA0, symBinAddr: 0x8EB90, symSize: 0x20 }
  - { offset: 0x2041C8, size: 0x8, addend: 0x0, symName: _ggml_geglu_quick, symObjAddr: 0x5AC0, symBinAddr: 0x8EBB0, symSize: 0x20 }
  - { offset: 0x204233, size: 0x8, addend: 0x0, symName: _ggml_geglu_quick_swapped, symObjAddr: 0x5AE0, symBinAddr: 0x8EBD0, symSize: 0x20 }
  - { offset: 0x20429E, size: 0x8, addend: 0x0, symName: _ggml_geglu_quick_split, symObjAddr: 0x5B00, symBinAddr: 0x8EBF0, symSize: 0x20 }
  - { offset: 0x20431A, size: 0x8, addend: 0x0, symName: _ggml_swiglu_oai, symObjAddr: 0x5B20, symBinAddr: 0x8EC10, symSize: 0x40 }
  - { offset: 0x20447B, size: 0x8, addend: 0x0, symName: _ggml_norm, symObjAddr: 0x5B60, symBinAddr: 0x8EC50, symSize: 0x70 }
  - { offset: 0x2045CD, size: 0x8, addend: 0x0, symName: _ggml_norm_inplace, symObjAddr: 0x5BD0, symBinAddr: 0x8ECC0, symSize: 0x90 }
  - { offset: 0x20476C, size: 0x8, addend: 0x0, symName: _ggml_rms_norm, symObjAddr: 0x5C60, symBinAddr: 0x8ED50, symSize: 0x70 }
  - { offset: 0x2048BE, size: 0x8, addend: 0x0, symName: _ggml_rms_norm_inplace, symObjAddr: 0x5CD0, symBinAddr: 0x8EDC0, symSize: 0x90 }
  - { offset: 0x204A0D, size: 0x8, addend: 0x0, symName: _ggml_rms_norm_back, symObjAddr: 0x5D60, symBinAddr: 0x8EE50, symSize: 0x80 }
  - { offset: 0x204B75, size: 0x8, addend: 0x0, symName: _ggml_group_norm, symObjAddr: 0x5DE0, symBinAddr: 0x8EED0, symSize: 0x50 }
  - { offset: 0x204D0C, size: 0x8, addend: 0x0, symName: _ggml_group_norm_inplace, symObjAddr: 0x5E30, symBinAddr: 0x8EF20, symSize: 0xA0 }
  - { offset: 0x204EFA, size: 0x8, addend: 0x0, symName: _ggml_l2_norm, symObjAddr: 0x5ED0, symBinAddr: 0x8EFC0, symSize: 0x50 }
  - { offset: 0x205052, size: 0x8, addend: 0x0, symName: _ggml_l2_norm_inplace, symObjAddr: 0x5F20, symBinAddr: 0x8F010, symSize: 0x90 }
  - { offset: 0x2051EE, size: 0x8, addend: 0x0, symName: _ggml_mul_mat, symObjAddr: 0x5FB0, symBinAddr: 0x8F0A0, symSize: 0x140 }
  - { offset: 0x205333, size: 0x8, addend: 0x0, symName: _ggml_mul_mat_set_prec, symObjAddr: 0x60F0, symBinAddr: 0x8F1E0, symSize: 0x30 }
  - { offset: 0x2053C3, size: 0x8, addend: 0x0, symName: _ggml_mul_mat_id, symObjAddr: 0x6120, symBinAddr: 0x8F210, symSize: 0x230 }
  - { offset: 0x2055A9, size: 0x8, addend: 0x0, symName: _ggml_out_prod, symObjAddr: 0x6350, symBinAddr: 0x8F440, symSize: 0x140 }
  - { offset: 0x2056EE, size: 0x8, addend: 0x0, symName: _ggml_scale, symObjAddr: 0x6490, symBinAddr: 0x8F580, symSize: 0x10 }
  - { offset: 0x205748, size: 0x8, addend: 0x0, symName: _ggml_scale_impl, symObjAddr: 0x64A0, symBinAddr: 0x8F590, symSize: 0x140 }
  - { offset: 0x205952, size: 0x8, addend: 0x0, symName: _ggml_scale_inplace, symObjAddr: 0x65E0, symBinAddr: 0x8F6D0, symSize: 0x20 }
  - { offset: 0x2059C8, size: 0x8, addend: 0x0, symName: _ggml_scale_bias, symObjAddr: 0x6600, symBinAddr: 0x8F6F0, symSize: 0x10 }
  - { offset: 0x205A55, size: 0x8, addend: 0x0, symName: _ggml_scale_bias_inplace, symObjAddr: 0x6610, symBinAddr: 0x8F700, symSize: 0x10 }
  - { offset: 0x205AE2, size: 0x8, addend: 0x0, symName: _ggml_set, symObjAddr: 0x6620, symBinAddr: 0x8F710, symSize: 0x20 }
  - { offset: 0x205BB3, size: 0x8, addend: 0x0, symName: _ggml_set_impl, symObjAddr: 0x6640, symBinAddr: 0x8F730, symSize: 0x180 }
  - { offset: 0x205DFE, size: 0x8, addend: 0x0, symName: _ggml_set_inplace, symObjAddr: 0x67C0, symBinAddr: 0x8F8B0, symSize: 0x20 }
  - { offset: 0x205ECF, size: 0x8, addend: 0x0, symName: _ggml_set_1d, symObjAddr: 0x67E0, symBinAddr: 0x8F8D0, symSize: 0x30 }
  - { offset: 0x205F56, size: 0x8, addend: 0x0, symName: _ggml_set_1d_inplace, symObjAddr: 0x6810, symBinAddr: 0x8F900, symSize: 0x30 }
  - { offset: 0x205FDD, size: 0x8, addend: 0x0, symName: _ggml_set_2d, symObjAddr: 0x6840, symBinAddr: 0x8F930, symSize: 0x20 }
  - { offset: 0x20607D, size: 0x8, addend: 0x0, symName: _ggml_set_2d_inplace, symObjAddr: 0x6860, symBinAddr: 0x8F950, symSize: 0x20 }
  - { offset: 0x206160, size: 0x8, addend: 0x0, symName: _ggml_cpy, symObjAddr: 0x6880, symBinAddr: 0x8F970, symSize: 0x120 }
  - { offset: 0x2062F2, size: 0x8, addend: 0x0, symName: _ggml_cast, symObjAddr: 0x69A0, symBinAddr: 0x8FA90, symSize: 0x60 }
  - { offset: 0x20640C, size: 0x8, addend: 0x0, symName: _ggml_cont, symObjAddr: 0x6A00, symBinAddr: 0x8FAF0, symSize: 0x60 }
  - { offset: 0x20657E, size: 0x8, addend: 0x0, symName: _ggml_cont_1d, symObjAddr: 0x6A60, symBinAddr: 0x8FB50, symSize: 0xE0 }
  - { offset: 0x20671C, size: 0x8, addend: 0x0, symName: _ggml_cont_4d, symObjAddr: 0x6B40, symBinAddr: 0x8FC30, symSize: 0xE0 }
  - { offset: 0x206884, size: 0x8, addend: 0x0, symName: _ggml_cont_2d, symObjAddr: 0x6C20, symBinAddr: 0x8FD10, symSize: 0xE0 }
  - { offset: 0x206A36, size: 0x8, addend: 0x0, symName: _ggml_cont_3d, symObjAddr: 0x6D00, symBinAddr: 0x8FDF0, symSize: 0xE0 }
  - { offset: 0x206BFC, size: 0x8, addend: 0x0, symName: _ggml_reshape, symObjAddr: 0x6DE0, symBinAddr: 0x8FED0, symSize: 0x170 }
  - { offset: 0x206D96, size: 0x8, addend: 0x0, symName: _ggml_reshape_1d, symObjAddr: 0x6F50, symBinAddr: 0x90040, symSize: 0x190 }
  - { offset: 0x206F36, size: 0x8, addend: 0x0, symName: _ggml_reshape_2d, symObjAddr: 0x70E0, symBinAddr: 0x901D0, symSize: 0x1A0 }
  - { offset: 0x2070E7, size: 0x8, addend: 0x0, symName: _ggml_reshape_3d, symObjAddr: 0x7280, symBinAddr: 0x90370, symSize: 0x1A0 }
  - { offset: 0x2072A9, size: 0x8, addend: 0x0, symName: _ggml_reshape_4d, symObjAddr: 0x7420, symBinAddr: 0x90510, symSize: 0x1B0 }
  - { offset: 0x2074D9, size: 0x8, addend: 0x0, symName: _ggml_view_1d, symObjAddr: 0x75D0, symBinAddr: 0x906C0, symSize: 0x90 }
  - { offset: 0x207612, size: 0x8, addend: 0x0, symName: _ggml_view_2d, symObjAddr: 0x7660, symBinAddr: 0x90750, symSize: 0xE0 }
  - { offset: 0x207784, size: 0x8, addend: 0x0, symName: _ggml_view_3d, symObjAddr: 0x7740, symBinAddr: 0x90830, symSize: 0xE0 }
  - { offset: 0x207917, size: 0x8, addend: 0x0, symName: _ggml_view_4d, symObjAddr: 0x7820, symBinAddr: 0x90910, symSize: 0xE0 }
  - { offset: 0x207A6D, size: 0x8, addend: 0x0, symName: _ggml_permute, symObjAddr: 0x7900, symBinAddr: 0x909F0, symSize: 0x340 }
  - { offset: 0x207CE6, size: 0x8, addend: 0x0, symName: _ggml_transpose, symObjAddr: 0x7C40, symBinAddr: 0x90D30, symSize: 0xC0 }
  - { offset: 0x207DC9, size: 0x8, addend: 0x0, symName: _ggml_get_rows, symObjAddr: 0x7D00, symBinAddr: 0x90DF0, symSize: 0x150 }
  - { offset: 0x207FB4, size: 0x8, addend: 0x0, symName: _ggml_get_rows_back, symObjAddr: 0x7E50, symBinAddr: 0x90F40, symSize: 0x110 }
  - { offset: 0x20816C, size: 0x8, addend: 0x0, symName: _ggml_set_rows, symObjAddr: 0x7F60, symBinAddr: 0x91050, symSize: 0x300 }
  - { offset: 0x2083BA, size: 0x8, addend: 0x0, symName: _ggml_diag, symObjAddr: 0x8260, symBinAddr: 0x91350, symSize: 0xA0 }
  - { offset: 0x2084FB, size: 0x8, addend: 0x0, symName: _ggml_diag_mask_inf, symObjAddr: 0x8300, symBinAddr: 0x913F0, symSize: 0x60 }
  - { offset: 0x20863A, size: 0x8, addend: 0x0, symName: _ggml_diag_mask_inf_inplace, symObjAddr: 0x8360, symBinAddr: 0x91450, symSize: 0x90 }
  - { offset: 0x20864E, size: 0x8, addend: 0x0, symName: _ggml_diag_mask_inf_inplace, symObjAddr: 0x8360, symBinAddr: 0x91450, symSize: 0x90 }
  - { offset: 0x208802, size: 0x8, addend: 0x0, symName: _ggml_diag_mask_zero, symObjAddr: 0x83F0, symBinAddr: 0x914E0, symSize: 0x60 }
  - { offset: 0x208941, size: 0x8, addend: 0x0, symName: _ggml_diag_mask_zero_inplace, symObjAddr: 0x8450, symBinAddr: 0x91540, symSize: 0x90 }
  - { offset: 0x208955, size: 0x8, addend: 0x0, symName: _ggml_diag_mask_zero_inplace, symObjAddr: 0x8450, symBinAddr: 0x91540, symSize: 0x90 }
  - { offset: 0x208AAC, size: 0x8, addend: 0x0, symName: _ggml_soft_max, symObjAddr: 0x84E0, symBinAddr: 0x915D0, symSize: 0x20 }
  - { offset: 0x208B11, size: 0x8, addend: 0x0, symName: _ggml_soft_max_impl, symObjAddr: 0x8500, symBinAddr: 0x915F0, symSize: 0x3E0 }
  - { offset: 0x208EC0, size: 0x8, addend: 0x0, symName: _ggml_soft_max_inplace, symObjAddr: 0x88E0, symBinAddr: 0x919D0, symSize: 0x20 }
  - { offset: 0x208F25, size: 0x8, addend: 0x0, symName: _ggml_soft_max_ext, symObjAddr: 0x8900, symBinAddr: 0x919F0, symSize: 0x10 }
  - { offset: 0x208FC9, size: 0x8, addend: 0x0, symName: _ggml_soft_max_ext_inplace, symObjAddr: 0x8910, symBinAddr: 0x91A00, symSize: 0x10 }
  - { offset: 0x20906D, size: 0x8, addend: 0x0, symName: _ggml_soft_max_add_sinks, symObjAddr: 0x8920, symBinAddr: 0x91A10, symSize: 0xD0 }
  - { offset: 0x20916D, size: 0x8, addend: 0x0, symName: _ggml_soft_max_ext_back, symObjAddr: 0x89F0, symBinAddr: 0x91AE0, symSize: 0x70 }
  - { offset: 0x209299, size: 0x8, addend: 0x0, symName: _ggml_soft_max_ext_back_inplace, symObjAddr: 0x8A60, symBinAddr: 0x91B50, symSize: 0xB0 }
  - { offset: 0x2093F6, size: 0x8, addend: 0x0, symName: _ggml_rope, symObjAddr: 0x8B10, symBinAddr: 0x91C00, symSize: 0x40 }
  - { offset: 0x2094A2, size: 0x8, addend: 0x0, symName: _ggml_rope_impl, symObjAddr: 0x8B50, symBinAddr: 0x91C40, symSize: 0x320 }
  - { offset: 0x2097C5, size: 0x8, addend: 0x0, symName: _ggml_rope_multi, symObjAddr: 0x8E70, symBinAddr: 0x91F60, symSize: 0x20 }
  - { offset: 0x2098D3, size: 0x8, addend: 0x0, symName: _ggml_rope_multi_inplace, symObjAddr: 0x8E90, symBinAddr: 0x91F80, symSize: 0x20 }
  - { offset: 0x209A4A, size: 0x8, addend: 0x0, symName: _ggml_rope_inplace, symObjAddr: 0x8EB0, symBinAddr: 0x91FA0, symSize: 0x40 }
  - { offset: 0x209AF6, size: 0x8, addend: 0x0, symName: _ggml_rope_ext, symObjAddr: 0x8EF0, symBinAddr: 0x91FE0, symSize: 0x30 }
  - { offset: 0x209BF9, size: 0x8, addend: 0x0, symName: _ggml_rope_ext_inplace, symObjAddr: 0x8F20, symBinAddr: 0x92010, symSize: 0x30 }
  - { offset: 0x209D5E, size: 0x8, addend: 0x0, symName: _ggml_rope_custom, symObjAddr: 0x8F50, symBinAddr: 0x92040, symSize: 0x30 }
  - { offset: 0x209EB1, size: 0x8, addend: 0x0, symName: _ggml_rope_custom_inplace, symObjAddr: 0x8F80, symBinAddr: 0x92070, symSize: 0x30 }
  - { offset: 0x20A047, size: 0x8, addend: 0x0, symName: _ggml_rope_yarn_corr_dims, symObjAddr: 0x8FB0, symBinAddr: 0x920A0, symSize: 0xE0 }
  - { offset: 0x20A204, size: 0x8, addend: 0x0, symName: _ggml_rope_ext_back, symObjAddr: 0x9090, symBinAddr: 0x92180, symSize: 0x30 }
  - { offset: 0x20A474, size: 0x8, addend: 0x0, symName: _ggml_rope_multi_back, symObjAddr: 0x90C0, symBinAddr: 0x921B0, symSize: 0x30 }
  - { offset: 0x20A62D, size: 0x8, addend: 0x0, symName: _ggml_clamp, symObjAddr: 0x90F0, symBinAddr: 0x921E0, symSize: 0xA0 }
  - { offset: 0x20A7B9, size: 0x8, addend: 0x0, symName: _ggml_im2col, symObjAddr: 0x9190, symBinAddr: 0x92280, symSize: 0x290 }
  - { offset: 0x20AA4E, size: 0x8, addend: 0x0, symName: _ggml_im2col_back, symObjAddr: 0x9420, symBinAddr: 0x92510, symSize: 0xA0 }
  - { offset: 0x20AB80, size: 0x8, addend: 0x0, symName: _ggml_conv_1d, symObjAddr: 0x94C0, symBinAddr: 0x925B0, symSize: 0xA0 }
  - { offset: 0x20ACF7, size: 0x8, addend: 0x0, symName: _ggml_conv_1d_ph, symObjAddr: 0x9560, symBinAddr: 0x92650, symSize: 0xB0 }
  - { offset: 0x20AE61, size: 0x8, addend: 0x0, symName: _ggml_conv_1d_dw, symObjAddr: 0x9610, symBinAddr: 0x92700, symSize: 0xA0 }
  - { offset: 0x20AFDC, size: 0x8, addend: 0x0, symName: _ggml_conv_1d_dw_ph, symObjAddr: 0x96B0, symBinAddr: 0x927A0, symSize: 0xB0 }
  - { offset: 0x20B196, size: 0x8, addend: 0x0, symName: _ggml_conv_transpose_1d, symObjAddr: 0x9760, symBinAddr: 0x92850, symSize: 0x1D0 }
  - { offset: 0x20B3DD, size: 0x8, addend: 0x0, symName: _ggml_conv_2d, symObjAddr: 0x9930, symBinAddr: 0x92A20, symSize: 0x110 }
  - { offset: 0x20B680, size: 0x8, addend: 0x0, symName: _ggml_im2col_3d, symObjAddr: 0x9A40, symBinAddr: 0x92B30, symSize: 0x290 }
  - { offset: 0x20B9F8, size: 0x8, addend: 0x0, symName: _ggml_conv_3d, symObjAddr: 0x9CD0, symBinAddr: 0x92DC0, symSize: 0x1D0 }
  - { offset: 0x20BD40, size: 0x8, addend: 0x0, symName: _ggml_conv_2d_sk_p0, symObjAddr: 0x9EA0, symBinAddr: 0x92F90, symSize: 0x30 }
  - { offset: 0x20BDBC, size: 0x8, addend: 0x0, symName: _ggml_conv_2d_s1_ph, symObjAddr: 0x9ED0, symBinAddr: 0x92FC0, symSize: 0x50 }
  - { offset: 0x20BE3E, size: 0x8, addend: 0x0, symName: _ggml_conv_2d_dw, symObjAddr: 0x9F20, symBinAddr: 0x93010, symSize: 0x130 }
  - { offset: 0x20C032, size: 0x8, addend: 0x0, symName: _ggml_conv_2d_dw_direct, symObjAddr: 0xA050, symBinAddr: 0x93140, symSize: 0x240 }
  - { offset: 0x20C2BD, size: 0x8, addend: 0x0, symName: _ggml_conv_2d_direct, symObjAddr: 0xA290, symBinAddr: 0x93380, symSize: 0x170 }
  - { offset: 0x20C595, size: 0x8, addend: 0x0, symName: _ggml_conv_3d_direct, symObjAddr: 0xA400, symBinAddr: 0x934F0, symSize: 0x220 }
  - { offset: 0x20CA70, size: 0x8, addend: 0x0, symName: _ggml_conv_transpose_2d_p0, symObjAddr: 0xA620, symBinAddr: 0x93710, symSize: 0xE0 }
  - { offset: 0x20CC2E, size: 0x8, addend: 0x0, symName: _ggml_pool_1d, symObjAddr: 0xA700, symBinAddr: 0x937F0, symSize: 0x100 }
  - { offset: 0x20CDBD, size: 0x8, addend: 0x0, symName: _ggml_pool_2d, symObjAddr: 0xA800, symBinAddr: 0x938F0, symSize: 0x140 }
  - { offset: 0x20CF76, size: 0x8, addend: 0x0, symName: _ggml_pool_2d_back, symObjAddr: 0xA940, symBinAddr: 0x93A30, symSize: 0xB0 }
  - { offset: 0x20D088, size: 0x8, addend: 0x0, symName: _ggml_upscale, symObjAddr: 0xA9F0, symBinAddr: 0x93AE0, symSize: 0xE0 }
  - { offset: 0x20D113, size: 0x8, addend: 0x0, symName: _ggml_upscale, symObjAddr: 0xA9F0, symBinAddr: 0x93AE0, symSize: 0xE0 }
  - { offset: 0x20D2B4, size: 0x8, addend: 0x0, symName: _ggml_upscale_ext, symObjAddr: 0xAAD0, symBinAddr: 0x93BC0, symSize: 0xB0 }
  - { offset: 0x20D48C, size: 0x8, addend: 0x0, symName: _ggml_interpolate, symObjAddr: 0xAB80, symBinAddr: 0x93C70, symSize: 0xA0 }
  - { offset: 0x20D6DC, size: 0x8, addend: 0x0, symName: _ggml_pad, symObjAddr: 0xAC20, symBinAddr: 0x93D10, symSize: 0xD0 }
  - { offset: 0x20D9B5, size: 0x8, addend: 0x0, symName: _ggml_pad_ext, symObjAddr: 0xACF0, symBinAddr: 0x93DE0, symSize: 0x100 }
  - { offset: 0x20DC3D, size: 0x8, addend: 0x0, symName: _ggml_pad_reflect_1d, symObjAddr: 0xADF0, symBinAddr: 0x93EE0, symSize: 0x260 }
  - { offset: 0x20DEE0, size: 0x8, addend: 0x0, symName: _ggml_roll, symObjAddr: 0xB050, symBinAddr: 0x94140, symSize: 0x170 }
  - { offset: 0x20E139, size: 0x8, addend: 0x0, symName: _ggml_arange, symObjAddr: 0xB1C0, symBinAddr: 0x942B0, symSize: 0xB0 }
  - { offset: 0x20E2F7, size: 0x8, addend: 0x0, symName: _ggml_timestep_embedding, symObjAddr: 0xB270, symBinAddr: 0x94360, symSize: 0x80 }
  - { offset: 0x20E468, size: 0x8, addend: 0x0, symName: _ggml_argsort, symObjAddr: 0xB2F0, symBinAddr: 0x943E0, symSize: 0x70 }
  - { offset: 0x20E634, size: 0x8, addend: 0x0, symName: _ggml_top_k, symObjAddr: 0xB360, symBinAddr: 0x94450, symSize: 0x180 }
  - { offset: 0x20E883, size: 0x8, addend: 0x0, symName: _ggml_flash_attn_ext, symObjAddr: 0xB4E0, symBinAddr: 0x945D0, symSize: 0x3E0 }
  - { offset: 0x20EB6A, size: 0x8, addend: 0x0, symName: _ggml_flash_attn_ext_set_prec, symObjAddr: 0xB8C0, symBinAddr: 0x949B0, symSize: 0x30 }
  - { offset: 0x20EBFA, size: 0x8, addend: 0x0, symName: _ggml_flash_attn_ext_get_prec, symObjAddr: 0xB8F0, symBinAddr: 0x949E0, symSize: 0x30 }
  - { offset: 0x20EC75, size: 0x8, addend: 0x0, symName: _ggml_flash_attn_ext_add_sinks, symObjAddr: 0xB920, symBinAddr: 0x94A10, symSize: 0xD0 }
  - { offset: 0x20ED0B, size: 0x8, addend: 0x0, symName: _ggml_flash_attn_back, symObjAddr: 0xB9F0, symBinAddr: 0x94AE0, symSize: 0x20 }
  - { offset: 0x20EE35, size: 0x8, addend: 0x0, symName: _ggml_ssm_conv, symObjAddr: 0xBA10, symBinAddr: 0x94B00, symSize: 0x140 }
  - { offset: 0x20F01F, size: 0x8, addend: 0x0, symName: _ggml_ssm_scan, symObjAddr: 0xBB50, symBinAddr: 0x94C40, symSize: 0x7B0 }
  - { offset: 0x20F690, size: 0x8, addend: 0x0, symName: _ggml_win_part, symObjAddr: 0xC300, symBinAddr: 0x953F0, symSize: 0x1F0 }
  - { offset: 0x20F836, size: 0x8, addend: 0x0, symName: _ggml_win_unpart, symObjAddr: 0xC4F0, symBinAddr: 0x955E0, symSize: 0xD0 }
  - { offset: 0x20F98F, size: 0x8, addend: 0x0, symName: _ggml_get_rel_pos, symObjAddr: 0xC5C0, symBinAddr: 0x956B0, symSize: 0xD0 }
  - { offset: 0x20FAA3, size: 0x8, addend: 0x0, symName: _ggml_add_rel_pos, symObjAddr: 0xC690, symBinAddr: 0x95780, symSize: 0x10 }
  - { offset: 0x20FB30, size: 0x8, addend: 0x0, symName: _ggml_add_rel_pos_impl, symObjAddr: 0xC6A0, symBinAddr: 0x95790, symSize: 0x450 }
  - { offset: 0x20FF9D, size: 0x8, addend: 0x0, symName: _ggml_add_rel_pos_inplace, symObjAddr: 0xCAF0, symBinAddr: 0x95BE0, symSize: 0x10 }
  - { offset: 0x21002A, size: 0x8, addend: 0x0, symName: _ggml_rwkv_wkv6, symObjAddr: 0xCB00, symBinAddr: 0x95BF0, symSize: 0x6E0 }
  - { offset: 0x210660, size: 0x8, addend: 0x0, symName: _ggml_gated_linear_attn, symObjAddr: 0xD1E0, symBinAddr: 0x962D0, symSize: 0x630 }
  - { offset: 0x210C25, size: 0x8, addend: 0x0, symName: _ggml_rwkv_wkv7, symObjAddr: 0xD810, symBinAddr: 0x96900, symSize: 0x830 }
  - { offset: 0x21142A, size: 0x8, addend: 0x0, symName: _ggml_map_custom1, symObjAddr: 0xE040, symBinAddr: 0x97130, symSize: 0xB0 }
  - { offset: 0x2115CF, size: 0x8, addend: 0x0, symName: _ggml_map_custom1_inplace, symObjAddr: 0xE0F0, symBinAddr: 0x971E0, symSize: 0xD0 }
  - { offset: 0x21185C, size: 0x8, addend: 0x0, symName: _ggml_map_custom2, symObjAddr: 0xE1C0, symBinAddr: 0x972B0, symSize: 0xC0 }
  - { offset: 0x211A1C, size: 0x8, addend: 0x0, symName: _ggml_map_custom2_inplace, symObjAddr: 0xE280, symBinAddr: 0x97370, symSize: 0xE0 }
  - { offset: 0x211CD6, size: 0x8, addend: 0x0, symName: _ggml_map_custom3, symObjAddr: 0xE360, symBinAddr: 0x97450, symSize: 0xD0 }
  - { offset: 0x211EAF, size: 0x8, addend: 0x0, symName: _ggml_map_custom3_inplace, symObjAddr: 0xE430, symBinAddr: 0x97520, symSize: 0xF0 }
  - { offset: 0x21207A, size: 0x8, addend: 0x0, symName: _ggml_custom_4d, symObjAddr: 0xE520, symBinAddr: 0x97610, symSize: 0x170 }
  - { offset: 0x212297, size: 0x8, addend: 0x0, symName: _ggml_custom_inplace, symObjAddr: 0xE690, symBinAddr: 0x97780, symSize: 0x160 }
  - { offset: 0x212434, size: 0x8, addend: 0x0, symName: _ggml_cross_entropy_loss, symObjAddr: 0xE7F0, symBinAddr: 0x978E0, symSize: 0xA0 }
  - { offset: 0x212566, size: 0x8, addend: 0x0, symName: _ggml_cross_entropy_loss_back, symObjAddr: 0xE890, symBinAddr: 0x97980, symSize: 0xE0 }
  - { offset: 0x2126D2, size: 0x8, addend: 0x0, symName: _ggml_opt_step_adamw, symObjAddr: 0xE970, symBinAddr: 0x97A60, symSize: 0x240 }
  - { offset: 0x21290F, size: 0x8, addend: 0x0, symName: _ggml_opt_step_sgd, symObjAddr: 0xEBB0, symBinAddr: 0x97CA0, symSize: 0x190 }
  - { offset: 0x212B51, size: 0x8, addend: 0x0, symName: _ggml_hash_set_new, symObjAddr: 0xED40, symBinAddr: 0x97E30, symSize: 0x1A0 }
  - { offset: 0x212CF2, size: 0x8, addend: 0x0, symName: _ggml_hash_set_reset, symObjAddr: 0xEF40, symBinAddr: 0x98030, symSize: 0x20 }
  - { offset: 0x212D30, size: 0x8, addend: 0x0, symName: _ggml_hash_set_free, symObjAddr: 0xEF60, symBinAddr: 0x98050, symSize: 0x30 }
  - { offset: 0x212DC1, size: 0x8, addend: 0x0, symName: _ggml_build_forward_expand, symObjAddr: 0xEF90, symBinAddr: 0x98080, symSize: 0x60 }
  - { offset: 0x212E61, size: 0x8, addend: 0x0, symName: _ggml_visit_parents, symObjAddr: 0x14600, symBinAddr: 0x9D6F0, symSize: 0x360 }
  - { offset: 0x213CBD, size: 0x8, addend: 0x0, symName: _ggml_build_backward_expand, symObjAddr: 0xEFF0, symBinAddr: 0x980E0, symSize: 0x2A50 }
  - { offset: 0x217103, size: 0x8, addend: 0x0, symName: _ggml_add_or_set, symObjAddr: 0x14960, symBinAddr: 0x9DA50, symSize: 0xF0 }
  - { offset: 0x217243, size: 0x8, addend: 0x0, symName: _ggml_sub_or_set, symObjAddr: 0x14A50, symBinAddr: 0x9DB40, symSize: 0x1E0 }
  - { offset: 0x217537, size: 0x8, addend: 0x0, symName: _ggml_add1_or_set, symObjAddr: 0x14C30, symBinAddr: 0x9DD20, symSize: 0xF3 }
  - { offset: 0x217720, size: 0x8, addend: 0x0, symName: _ggml_graph_overhead_custom, symObjAddr: 0x11A40, symBinAddr: 0x9AB30, symSize: 0xA0 }
  - { offset: 0x21787A, size: 0x8, addend: 0x0, symName: _ggml_graph_overhead, symObjAddr: 0x11AE0, symBinAddr: 0x9ABD0, symSize: 0x80 }
  - { offset: 0x2179CB, size: 0x8, addend: 0x0, symName: _ggml_new_graph_custom, symObjAddr: 0x11B60, symBinAddr: 0x9AC50, symSize: 0x270 }
  - { offset: 0x217D57, size: 0x8, addend: 0x0, symName: _ggml_new_graph, symObjAddr: 0x11DD0, symBinAddr: 0x9AEC0, symSize: 0x20 }
  - { offset: 0x217DA7, size: 0x8, addend: 0x0, symName: _ggml_graph_view, symObjAddr: 0x11DF0, symBinAddr: 0x9AEE0, symSize: 0x60 }
  - { offset: 0x217E68, size: 0x8, addend: 0x0, symName: _ggml_graph_cpy, symObjAddr: 0x11E50, symBinAddr: 0x9AF40, symSize: 0x570 }
  - { offset: 0x21825A, size: 0x8, addend: 0x0, symName: _ggml_graph_dup, symObjAddr: 0x123C0, symBinAddr: 0x9B4B0, symSize: 0x40 }
  - { offset: 0x2182E7, size: 0x8, addend: 0x0, symName: _ggml_set_zero, symObjAddr: 0x12400, symBinAddr: 0x9B4F0, symSize: 0x1F0 }
  - { offset: 0x2184D3, size: 0x8, addend: 0x0, symName: _ggml_graph_reset, symObjAddr: 0x125F0, symBinAddr: 0x9B6E0, symSize: 0x260 }
  - { offset: 0x2186C1, size: 0x8, addend: 0x0, symName: _ggml_graph_get_grad_acc, symObjAddr: 0x12850, symBinAddr: 0x9B940, symSize: 0x80 }
  - { offset: 0x2186F6, size: 0x8, addend: 0x0, symName: _ggml_graph_get_grad_acc, symObjAddr: 0x12850, symBinAddr: 0x9B940, symSize: 0x80 }
  - { offset: 0x2187A8, size: 0x8, addend: 0x0, symName: _ggml_graph_clear, symObjAddr: 0x128D0, symBinAddr: 0x9B9C0, symSize: 0x30 }
  - { offset: 0x218811, size: 0x8, addend: 0x0, symName: _ggml_graph_size, symObjAddr: 0x12900, symBinAddr: 0x9B9F0, symSize: 0x10 }
  - { offset: 0x21883C, size: 0x8, addend: 0x0, symName: _ggml_graph_node, symObjAddr: 0x12910, symBinAddr: 0x9BA00, symSize: 0x70 }
  - { offset: 0x2188A8, size: 0x8, addend: 0x0, symName: _ggml_graph_nodes, symObjAddr: 0x12980, symBinAddr: 0x9BA70, symSize: 0x10 }
  - { offset: 0x2188D3, size: 0x8, addend: 0x0, symName: _ggml_graph_n_nodes, symObjAddr: 0x12990, symBinAddr: 0x9BA80, symSize: 0x10 }
  - { offset: 0x2188FE, size: 0x8, addend: 0x0, symName: _ggml_graph_add_node, symObjAddr: 0x129A0, symBinAddr: 0x9BA90, symSize: 0x40 }
  - { offset: 0x21894F, size: 0x8, addend: 0x0, symName: _ggml_graph_get_tensor, symObjAddr: 0x129E0, symBinAddr: 0x9BAD0, symSize: 0xB0 }
  - { offset: 0x218A49, size: 0x8, addend: 0x0, symName: _ggml_graph_get_grad, symObjAddr: 0x12A90, symBinAddr: 0x9BB80, symSize: 0x80 }
  - { offset: 0x218B17, size: 0x8, addend: 0x0, symName: _ggml_graph_print, symObjAddr: 0x12B10, symBinAddr: 0x9BC00, symSize: 0x1F0 }
  - { offset: 0x218EDF, size: 0x8, addend: 0x0, symName: _ggml_graph_dump_dot, symObjAddr: 0x12D00, symBinAddr: 0x9BDF0, symSize: 0xBF0 }
  - { offset: 0x219A41, size: 0x8, addend: 0x0, symName: _ggml_set_input, symObjAddr: 0x138F0, symBinAddr: 0x9C9E0, symSize: 0x10 }
  - { offset: 0x219A68, size: 0x8, addend: 0x0, symName: _ggml_set_output, symObjAddr: 0x13900, symBinAddr: 0x9C9F0, symSize: 0x10 }
  - { offset: 0x219A8F, size: 0x8, addend: 0x0, symName: _ggml_set_param, symObjAddr: 0x13910, symBinAddr: 0x9CA00, symSize: 0x40 }
  - { offset: 0x219ACF, size: 0x8, addend: 0x0, symName: _ggml_set_loss, symObjAddr: 0x13950, symBinAddr: 0x9CA40, symSize: 0x70 }
  - { offset: 0x219B31, size: 0x8, addend: 0x0, symName: _ggml_quantize_init, symObjAddr: 0x139C0, symBinAddr: 0x9CAB0, symSize: 0x60 }
  - { offset: 0x219B45, size: 0x8, addend: 0x0, symName: _ggml_quantize_init, symObjAddr: 0x139C0, symBinAddr: 0x9CAB0, symSize: 0x60 }
  - { offset: 0x219BD0, size: 0x8, addend: 0x0, symName: _ggml_quantize_free, symObjAddr: 0x13A20, symBinAddr: 0x9CB10, symSize: 0x40 }
  - { offset: 0x219C78, size: 0x8, addend: 0x0, symName: _ggml_quantize_requires_imatrix, symObjAddr: 0x13A60, symBinAddr: 0x9CB50, symSize: 0x20 }
  - { offset: 0x219D4A, size: 0x8, addend: 0x0, symName: _ggml_quantize_chunk, symObjAddr: 0x13A80, symBinAddr: 0x9CB70, symSize: 0xA70 }
  - { offset: 0x21A861, size: 0x8, addend: 0x0, symName: _ggml_log_set, symObjAddr: 0x144F0, symBinAddr: 0x9D5E0, symSize: 0x30 }
  - { offset: 0x21A897, size: 0x8, addend: 0x0, symName: _ggml_threadpool_params_init, symObjAddr: 0x14520, symBinAddr: 0x9D610, symSize: 0x40 }
  - { offset: 0x21A95D, size: 0x8, addend: 0x0, symName: _ggml_threadpool_params_default, symObjAddr: 0x14560, symBinAddr: 0x9D650, symSize: 0x40 }
  - { offset: 0x21A9C4, size: 0x8, addend: 0x0, symName: _ggml_threadpool_params_match, symObjAddr: 0x145A0, symBinAddr: 0x9D690, symSize: 0x60 }
  - { offset: 0x21AC37, size: 0x8, addend: 0x0, symName: __ZL26previous_terminate_handler, symObjAddr: 0x6338, symBinAddr: 0x204868, symSize: 0x0 }
  - { offset: 0x21B96B, size: 0x8, addend: 0x0, symName: __ZL23ggml_uncaught_exceptionv, symObjAddr: 0x0, symBinAddr: 0x9DE20, symSize: 0x1C }
  - { offset: 0x21BA2C, size: 0x8, addend: 0x0, symName: __GLOBAL__sub_I_ggml.cpp, symObjAddr: 0x20, symBinAddr: 0x9DE40, symSize: 0x5D }
  - { offset: 0x21DA1D, size: 0x8, addend: 0x0, symName: __ZL14GGUF_TYPE_SIZE, symObjAddr: 0x19DB30, symBinAddr: 0x204870, symSize: 0x0 }
  - { offset: 0x23B2D9, size: 0x8, addend: 0x0, symName: __ZNSt3__134__uninitialized_allocator_relocateB8ne190102INS_9allocatorI7gguf_kvEES2_EEvRT_PT0_S7_S7_, symObjAddr: 0xBD60, symBinAddr: 0xA98A0, symSize: 0x150 }
  - { offset: 0x23B338, size: 0x8, addend: 0x0, symName: __ZNSt3__134__uninitialized_allocator_relocateB8ne190102INS_9allocatorI7gguf_kvEES2_EEvRT_PT0_S7_S7_, symObjAddr: 0xBD60, symBinAddr: 0xA98A0, symSize: 0x150 }
  - { offset: 0x23E62D, size: 0x8, addend: 0x0, symName: __ZL14GGUF_TYPE_NAME, symObjAddr: 0x19DB48, symBinAddr: 0x204888, symSize: 0x0 }
  - { offset: 0x240739, size: 0x8, addend: 0x0, symName: __ZNSt3__13mapI9gguf_typemNS_4lessIS1_EENS_9allocatorINS_4pairIKS1_mEEEEED1B8ne190102Ev, symObjAddr: 0x0, symBinAddr: 0x9DEA0, symSize: 0x10 }
  - { offset: 0x2407F5, size: 0x8, addend: 0x0, symName: __ZNSt3__16__treeINS_12__value_typeI9gguf_typemEENS_19__map_value_compareIS2_S3_NS_4lessIS2_EELb1EEENS_9allocatorIS3_EEE7destroyEPNS_11__tree_nodeIS3_PvEE, symObjAddr: 0xB690, symBinAddr: 0xA9270, symSize: 0x40 }
  - { offset: 0x2409BA, size: 0x8, addend: 0x0, symName: __ZNSt3__13mapI9gguf_typePKcNS_4lessIS1_EENS_9allocatorINS_4pairIKS1_S3_EEEEED1B8ne190102Ev, symObjAddr: 0x10, symBinAddr: 0x9DEB0, symSize: 0x10 }
  - { offset: 0x240A76, size: 0x8, addend: 0x0, symName: __ZNSt3__16__treeINS_12__value_typeI9gguf_typePKcEENS_19__map_value_compareIS2_S5_NS_4lessIS2_EELb1EEENS_9allocatorIS5_EEE7destroyEPNS_11__tree_nodeIS5_PvEE, symObjAddr: 0xB840, symBinAddr: 0xA9420, symSize: 0x40 }
  - { offset: 0x240D00, size: 0x8, addend: 0x0, symName: __Z14gguf_type_size9gguf_type, symObjAddr: 0x20, symBinAddr: 0x9DEC0, symSize: 0x60 }
  - { offset: 0x240D2A, size: 0x8, addend: 0x0, symName: __Z14gguf_type_size9gguf_type, symObjAddr: 0x20, symBinAddr: 0x9DEC0, symSize: 0x60 }
  - { offset: 0x240D3F, size: 0x8, addend: 0x0, symName: __Z14gguf_type_size9gguf_type, symObjAddr: 0x20, symBinAddr: 0x9DEC0, symSize: 0x60 }
  - { offset: 0x240D5F, size: 0x8, addend: 0x0, symName: __Z14gguf_type_size9gguf_type, symObjAddr: 0x20, symBinAddr: 0x9DEC0, symSize: 0x60 }
  - { offset: 0x240F40, size: 0x8, addend: 0x0, symName: _gguf_init_empty, symObjAddr: 0x80, symBinAddr: 0x9DF20, symSize: 0x40 }
  - { offset: 0x242040, size: 0x8, addend: 0x0, symName: __Z24gguf_init_from_file_implP7__sFILE16gguf_init_params, symObjAddr: 0xC0, symBinAddr: 0x9DF60, symSize: 0x1870 }
  - { offset: 0x2449A6, size: 0x8, addend: 0x0, symName: __ZNSt3__16vectorI7gguf_kvNS_9allocatorIS1_EEE22__base_destruct_at_endB8ne190102EPS1_, symObjAddr: 0xA940, symBinAddr: 0xA8760, symSize: 0xB0 }
  - { offset: 0x244FCB, size: 0x8, addend: 0x0, symName: __Z24gguf_read_emplace_helperIhEbRK11gguf_readerRNSt3__16vectorI7gguf_kvNS3_9allocatorIS5_EEEERKNS3_12basic_stringIcNS3_11char_traitsIcEENS6_IcEEEEbm, symObjAddr: 0x1990, symBinAddr: 0x9F820, symSize: 0x200 }
  - { offset: 0x245840, size: 0x8, addend: 0x0, symName: __Z24gguf_read_emplace_helperIxEbRK11gguf_readerRNSt3__16vectorI7gguf_kvNS3_9allocatorIS5_EEEERKNS3_12basic_stringIcNS3_11char_traitsIcEENS6_IcEEEEbm, symObjAddr: 0x3150, symBinAddr: 0xA0FE0, symSize: 0x260 }
  - { offset: 0x246191, size: 0x8, addend: 0x0, symName: __Z24gguf_read_emplace_helperItEbRK11gguf_readerRNSt3__16vectorI7gguf_kvNS3_9allocatorIS5_EEEERKNS3_12basic_stringIcNS3_11char_traitsIcEENS6_IcEEEEbm, symObjAddr: 0x1D90, symBinAddr: 0x9FC20, symSize: 0x260 }
  - { offset: 0x246ADA, size: 0x8, addend: 0x0, symName: __Z24gguf_read_emplace_helperIiEbRK11gguf_readerRNSt3__16vectorI7gguf_kvNS3_9allocatorIS5_EEEERKNS3_12basic_stringIcNS3_11char_traitsIcEENS6_IcEEEEbm, symObjAddr: 0x24B0, symBinAddr: 0xA0340, symSize: 0x260 }
  - { offset: 0x24742B, size: 0x8, addend: 0x0, symName: __Z24gguf_read_emplace_helperIdEbRK11gguf_readerRNSt3__16vectorI7gguf_kvNS3_9allocatorIS5_EEEERKNS3_12basic_stringIcNS3_11char_traitsIcEENS6_IcEEEEbm, symObjAddr: 0x33B0, symBinAddr: 0xA1240, symSize: 0x260 }
  - { offset: 0x247D7C, size: 0x8, addend: 0x0, symName: __Z24gguf_read_emplace_helperIaEbRK11gguf_readerRNSt3__16vectorI7gguf_kvNS3_9allocatorIS5_EEEERKNS3_12basic_stringIcNS3_11char_traitsIcEENS6_IcEEEEbm, symObjAddr: 0x1B90, symBinAddr: 0x9FA20, symSize: 0x200 }
  - { offset: 0x2485F1, size: 0x8, addend: 0x0, symName: __Z24gguf_read_emplace_helperIfEbRK11gguf_readerRNSt3__16vectorI7gguf_kvNS3_9allocatorIS5_EEEERKNS3_12basic_stringIcNS3_11char_traitsIcEENS6_IcEEEEbm, symObjAddr: 0x2710, symBinAddr: 0xA05A0, symSize: 0x260 }
  - { offset: 0x248F42, size: 0x8, addend: 0x0, symName: __Z24gguf_read_emplace_helperIbEbRK11gguf_readerRNSt3__16vectorI7gguf_kvNS3_9allocatorIS5_EEEERKNS3_12basic_stringIcNS3_11char_traitsIcEENS6_IcEEEEbm, symObjAddr: 0x2970, symBinAddr: 0xA0800, symSize: 0x280 }
  - { offset: 0x24986B, size: 0x8, addend: 0x0, symName: __Z24gguf_read_emplace_helperIsEbRK11gguf_readerRNSt3__16vectorI7gguf_kvNS3_9allocatorIS5_EEEERKNS3_12basic_stringIcNS3_11char_traitsIcEENS6_IcEEEEbm, symObjAddr: 0x1FF0, symBinAddr: 0x9FE80, symSize: 0x260 }
  - { offset: 0x24A1B4, size: 0x8, addend: 0x0, symName: __Z24gguf_read_emplace_helperIjEbRK11gguf_readerRNSt3__16vectorI7gguf_kvNS3_9allocatorIS5_EEEERKNS3_12basic_stringIcNS3_11char_traitsIcEENS6_IcEEEEbm, symObjAddr: 0x2250, symBinAddr: 0xA00E0, symSize: 0x260 }
  - { offset: 0x24AB05, size: 0x8, addend: 0x0, symName: __Z24gguf_read_emplace_helperIyEbRK11gguf_readerRNSt3__16vectorI7gguf_kvNS3_9allocatorIS5_EEEERKNS3_12basic_stringIcNS3_11char_traitsIcEENS6_IcEEEEbm, symObjAddr: 0x2EF0, symBinAddr: 0xA0D80, symSize: 0x260 }
  - { offset: 0x24B456, size: 0x8, addend: 0x0, symName: __Z24gguf_read_emplace_helperINSt3__112basic_stringIcNS0_11char_traitsIcEENS0_9allocatorIcEEEEEbRK11gguf_readerRNS0_6vectorI7gguf_kvNS4_ISB_EEEERKS6_bm, symObjAddr: 0x2BF0, symBinAddr: 0xA0A80, symSize: 0x300 }
  - { offset: 0x24C122, size: 0x8, addend: 0x0, symName: __ZNSt3__16vectorI16gguf_tensor_infoNS_9allocatorIS1_EEE9push_backB8ne190102ERKS1_, symObjAddr: 0x3860, symBinAddr: 0xA16F0, symSize: 0x150 }
  - { offset: 0x24C55D, size: 0x8, addend: 0x0, symName: _gguf_get_val_u32, symObjAddr: 0x36C0, symBinAddr: 0xA1550, symSize: 0x1A0 }
  - { offset: 0x24C86A, size: 0x8, addend: 0x0, symName: _gguf_free, symObjAddr: 0x1930, symBinAddr: 0x9F7D0, symSize: 0x50 }
  - { offset: 0x24D0AC, size: 0x8, addend: 0x0, symName: __ZNK11gguf_reader4readIhEEbRNSt3__16vectorIT_NS1_9allocatorIS3_EEEEm, symObjAddr: 0xB880, symBinAddr: 0xA9460, symSize: 0x150 }
  - { offset: 0x24D682, size: 0x8, addend: 0x0, symName: __ZN7gguf_kvC2IhEERKNSt3__112basic_stringIcNS1_11char_traitsIcEENS1_9allocatorIcEEEERKNS1_6vectorIT_NS5_ISB_EEEE, symObjAddr: 0xBB30, symBinAddr: 0xA9700, symSize: 0x160 }
  - { offset: 0x24DCB8, size: 0x8, addend: 0x0, symName: __ZN7gguf_kvC2IhEERKNSt3__112basic_stringIcNS1_11char_traitsIcEENS1_9allocatorIcEEEET_, symObjAddr: 0xC0E0, symBinAddr: 0xA9C20, symSize: 0xF0 }
  - { offset: 0x24E1CE, size: 0x8, addend: 0x0, symName: __ZNSt3__16vectorI7gguf_kvNS_9allocatorIS1_EEE24__emplace_back_slow_pathIJRKNS_12basic_stringIcNS_11char_traitsIcEENS2_IcEEEERhEEEPS1_DpOT_, symObjAddr: 0xBF80, symBinAddr: 0xA9AC0, symSize: 0x160 }
  - { offset: 0x24E6D3, size: 0x8, addend: 0x0, symName: __ZNSt3__16vectorI7gguf_kvNS_9allocatorIS1_EEE24__emplace_back_slow_pathIJRKNS_12basic_stringIcNS_11char_traitsIcEENS2_IcEEEERNS0_IhNS2_IhEEEEEEEPS1_DpOT_, symObjAddr: 0xB9E0, symBinAddr: 0xA95B0, symSize: 0x150 }
  - { offset: 0x24F01F, size: 0x8, addend: 0x0, symName: __ZNK11gguf_reader4readIaEEbRNSt3__16vectorIT_NS1_9allocatorIS3_EEEEm, symObjAddr: 0xC1D0, symBinAddr: 0xA9D10, symSize: 0x150 }
  - { offset: 0x24F5F5, size: 0x8, addend: 0x0, symName: __ZN7gguf_kvC2IaEERKNSt3__112basic_stringIcNS1_11char_traitsIcEENS1_9allocatorIcEEEERKNS1_6vectorIT_NS5_ISB_EEEE, symObjAddr: 0xC470, symBinAddr: 0xA9FB0, symSize: 0x160 }
  - { offset: 0x24FC2B, size: 0x8, addend: 0x0, symName: __ZN7gguf_kvC2IaEERKNSt3__112basic_stringIcNS1_11char_traitsIcEENS1_9allocatorIcEEEET_, symObjAddr: 0xC730, symBinAddr: 0xAA270, symSize: 0xF0 }
  - { offset: 0x250129, size: 0x8, addend: 0x0, symName: __ZNSt3__16vectorI7gguf_kvNS_9allocatorIS1_EEE24__emplace_back_slow_pathIJRKNS_12basic_stringIcNS_11char_traitsIcEENS2_IcEEEERaEEEPS1_DpOT_, symObjAddr: 0xC5D0, symBinAddr: 0xAA110, symSize: 0x160 }
  - { offset: 0x25062E, size: 0x8, addend: 0x0, symName: __ZNSt3__16vectorI7gguf_kvNS_9allocatorIS1_EEE24__emplace_back_slow_pathIJRKNS_12basic_stringIcNS_11char_traitsIcEENS2_IcEEEERNS0_IaNS2_IaEEEEEEEPS1_DpOT_, symObjAddr: 0xC320, symBinAddr: 0xA9E60, symSize: 0x150 }
  - { offset: 0x251009, size: 0x8, addend: 0x0, symName: __ZNSt3__16vectorItNS_9allocatorItEEE8__appendEm, symObjAddr: 0xC820, symBinAddr: 0xAA360, symSize: 0x130 }
  - { offset: 0x25148F, size: 0x8, addend: 0x0, symName: __ZN7gguf_kvC2ItEERKNSt3__112basic_stringIcNS1_11char_traitsIcEENS1_9allocatorIcEEEERKNS1_6vectorIT_NS5_ISB_EEEE, symObjAddr: 0xCAB0, symBinAddr: 0xAA5F0, symSize: 0x160 }
  - { offset: 0x251AC5, size: 0x8, addend: 0x0, symName: __ZN7gguf_kvC2ItEERKNSt3__112basic_stringIcNS1_11char_traitsIcEENS1_9allocatorIcEEEET_, symObjAddr: 0xCD70, symBinAddr: 0xAA8B0, symSize: 0xF0 }
  - { offset: 0x251FC3, size: 0x8, addend: 0x0, symName: __ZNSt3__16vectorI7gguf_kvNS_9allocatorIS1_EEE24__emplace_back_slow_pathIJRKNS_12basic_stringIcNS_11char_traitsIcEENS2_IcEEEERNS0_ItNS2_ItEEEEEEEPS1_DpOT_, symObjAddr: 0xC960, symBinAddr: 0xAA4A0, symSize: 0x150 }
  - { offset: 0x2524CC, size: 0x8, addend: 0x0, symName: __ZNSt3__16vectorI7gguf_kvNS_9allocatorIS1_EEE24__emplace_back_slow_pathIJRKNS_12basic_stringIcNS_11char_traitsIcEENS2_IcEEEERtEEEPS1_DpOT_, symObjAddr: 0xCC10, symBinAddr: 0xAA750, symSize: 0x160 }
  - { offset: 0x252EA3, size: 0x8, addend: 0x0, symName: __ZNSt3__16vectorIsNS_9allocatorIsEEE8__appendEm, symObjAddr: 0xCE60, symBinAddr: 0xAA9A0, symSize: 0x130 }
  - { offset: 0x253329, size: 0x8, addend: 0x0, symName: __ZN7gguf_kvC2IsEERKNSt3__112basic_stringIcNS1_11char_traitsIcEENS1_9allocatorIcEEEERKNS1_6vectorIT_NS5_ISB_EEEE, symObjAddr: 0xD0F0, symBinAddr: 0xAAC30, symSize: 0x160 }
  - { offset: 0x25395F, size: 0x8, addend: 0x0, symName: __ZN7gguf_kvC2IsEERKNSt3__112basic_stringIcNS1_11char_traitsIcEENS1_9allocatorIcEEEET_, symObjAddr: 0xD3B0, symBinAddr: 0xAAEF0, symSize: 0xF0 }
  - { offset: 0x253E5D, size: 0x8, addend: 0x0, symName: __ZNSt3__16vectorI7gguf_kvNS_9allocatorIS1_EEE24__emplace_back_slow_pathIJRKNS_12basic_stringIcNS_11char_traitsIcEENS2_IcEEEERNS0_IsNS2_IsEEEEEEEPS1_DpOT_, symObjAddr: 0xCFA0, symBinAddr: 0xAAAE0, symSize: 0x150 }
  - { offset: 0x254366, size: 0x8, addend: 0x0, symName: __ZNSt3__16vectorI7gguf_kvNS_9allocatorIS1_EEE24__emplace_back_slow_pathIJRKNS_12basic_stringIcNS_11char_traitsIcEENS2_IcEEEERsEEEPS1_DpOT_, symObjAddr: 0xD250, symBinAddr: 0xAAD90, symSize: 0x160 }
  - { offset: 0x254FAA, size: 0x8, addend: 0x0, symName: __ZN7gguf_kvC2IjEERKNSt3__112basic_stringIcNS1_11char_traitsIcEENS1_9allocatorIcEEEERKNS1_6vectorIT_NS5_ISB_EEEE, symObjAddr: 0xD750, symBinAddr: 0xAB130, symSize: 0x160 }
  - { offset: 0x2555E0, size: 0x8, addend: 0x0, symName: __ZN7gguf_kvC2IjEERKNSt3__112basic_stringIcNS1_11char_traitsIcEENS1_9allocatorIcEEEET_, symObjAddr: 0xDA10, symBinAddr: 0xAB3F0, symSize: 0xF0 }
  - { offset: 0x255ADE, size: 0x8, addend: 0x0, symName: __ZNSt3__16vectorI7gguf_kvNS_9allocatorIS1_EEE24__emplace_back_slow_pathIJRKNS_12basic_stringIcNS_11char_traitsIcEENS2_IcEEEERNS0_IjNS2_IjEEEEEEEPS1_DpOT_, symObjAddr: 0xD600, symBinAddr: 0xAAFE0, symSize: 0x150 }
  - { offset: 0x255FE7, size: 0x8, addend: 0x0, symName: __ZNSt3__16vectorI7gguf_kvNS_9allocatorIS1_EEE24__emplace_back_slow_pathIJRKNS_12basic_stringIcNS_11char_traitsIcEENS2_IcEEEERjEEEPS1_DpOT_, symObjAddr: 0xD8B0, symBinAddr: 0xAB290, symSize: 0x160 }
  - { offset: 0x256C33, size: 0x8, addend: 0x0, symName: __ZN7gguf_kvC2IiEERKNSt3__112basic_stringIcNS1_11char_traitsIcEENS1_9allocatorIcEEEERKNS1_6vectorIT_NS5_ISB_EEEE, symObjAddr: 0xDDB0, symBinAddr: 0xAB630, symSize: 0x160 }
  - { offset: 0x257269, size: 0x8, addend: 0x0, symName: __ZN7gguf_kvC2IiEERKNSt3__112basic_stringIcNS1_11char_traitsIcEENS1_9allocatorIcEEEET_, symObjAddr: 0xE070, symBinAddr: 0xAB8F0, symSize: 0xF0 }
  - { offset: 0x257767, size: 0x8, addend: 0x0, symName: __ZNSt3__16vectorI7gguf_kvNS_9allocatorIS1_EEE24__emplace_back_slow_pathIJRKNS_12basic_stringIcNS_11char_traitsIcEENS2_IcEEEERNS0_IiNS2_IiEEEEEEEPS1_DpOT_, symObjAddr: 0xDC60, symBinAddr: 0xAB4E0, symSize: 0x150 }
  - { offset: 0x257C70, size: 0x8, addend: 0x0, symName: __ZNSt3__16vectorI7gguf_kvNS_9allocatorIS1_EEE24__emplace_back_slow_pathIJRKNS_12basic_stringIcNS_11char_traitsIcEENS2_IcEEEERiEEEPS1_DpOT_, symObjAddr: 0xDF10, symBinAddr: 0xAB790, symSize: 0x160 }
  - { offset: 0x2588E6, size: 0x8, addend: 0x0, symName: __ZN7gguf_kvC2IfEERKNSt3__112basic_stringIcNS1_11char_traitsIcEENS1_9allocatorIcEEEERKNS1_6vectorIT_NS5_ISB_EEEE, symObjAddr: 0xE410, symBinAddr: 0xABB30, symSize: 0x160 }
  - { offset: 0x258F1C, size: 0x8, addend: 0x0, symName: __ZN7gguf_kvC2IfEERKNSt3__112basic_stringIcNS1_11char_traitsIcEENS1_9allocatorIcEEEET_, symObjAddr: 0xE6D0, symBinAddr: 0xABDF0, symSize: 0x100 }
  - { offset: 0x25941A, size: 0x8, addend: 0x0, symName: __ZNSt3__16vectorI7gguf_kvNS_9allocatorIS1_EEE24__emplace_back_slow_pathIJRKNS_12basic_stringIcNS_11char_traitsIcEENS2_IcEEEERNS0_IfNS2_IfEEEEEEEPS1_DpOT_, symObjAddr: 0xE2C0, symBinAddr: 0xAB9E0, symSize: 0x150 }
  - { offset: 0x259923, size: 0x8, addend: 0x0, symName: __ZNSt3__16vectorI7gguf_kvNS_9allocatorIS1_EEE24__emplace_back_slow_pathIJRKNS_12basic_stringIcNS_11char_traitsIcEENS2_IcEEEERfEEEPS1_DpOT_, symObjAddr: 0xE570, symBinAddr: 0xABC90, symSize: 0x160 }
  - { offset: 0x25A2EB, size: 0x8, addend: 0x0, symName: __ZNSt3__16vectorIbNS_9allocatorIbEEE6resizeEmb, symObjAddr: 0xE7D0, symBinAddr: 0xABEF0, symSize: 0x2A0 }
  - { offset: 0x25ABF4, size: 0x8, addend: 0x0, symName: __ZN7gguf_kvC2IbEERKNSt3__112basic_stringIcNS1_11char_traitsIcEENS1_9allocatorIcEEEERKNS1_6vectorIT_NS5_ISB_EEEE, symObjAddr: 0xED00, symBinAddr: 0xAC420, symSize: 0x160 }
  - { offset: 0x25B270, size: 0x8, addend: 0x0, symName: __ZN7gguf_kvC2IbEERKNSt3__112basic_stringIcNS1_11char_traitsIcEENS1_9allocatorIcEEEET_, symObjAddr: 0xEFC0, symBinAddr: 0xAC6E0, symSize: 0xF0 }
  - { offset: 0x25B76E, size: 0x8, addend: 0x0, symName: __ZNSt3__16vectorI7gguf_kvNS_9allocatorIS1_EEE24__emplace_back_slow_pathIJRKNS_12basic_stringIcNS_11char_traitsIcEENS2_IcEEEERNS0_IbNS2_IbEEEEEEEPS1_DpOT_, symObjAddr: 0xEBB0, symBinAddr: 0xAC2D0, symSize: 0x150 }
  - { offset: 0x25BC77, size: 0x8, addend: 0x0, symName: __ZNSt3__16vectorI7gguf_kvNS_9allocatorIS1_EEE24__emplace_back_slow_pathIJRKNS_12basic_stringIcNS_11char_traitsIcEENS2_IcEEEERbEEEPS1_DpOT_, symObjAddr: 0xEE60, symBinAddr: 0xAC580, symSize: 0x160 }
  - { offset: 0x25C5D3, size: 0x8, addend: 0x0, symName: __ZNK11gguf_reader4readINSt3__112basic_stringIcNS1_11char_traitsIcEENS1_9allocatorIcEEEEEEbRNS1_6vectorIT_NS5_IS9_EEEEm, symObjAddr: 0xF0B0, symBinAddr: 0xAC7D0, symSize: 0x190 }
  - { offset: 0x25C9E6, size: 0x8, addend: 0x0, symName: __ZN7gguf_kvC2ERKNSt3__112basic_stringIcNS0_11char_traitsIcEENS0_9allocatorIcEEEERKNS0_6vectorIS6_NS4_IS6_EEEE, symObjAddr: 0xF5A0, symBinAddr: 0xACC50, symSize: 0x100 }
  - { offset: 0x25CDBD, size: 0x8, addend: 0x0, symName: __ZNSt3__16vectorI7gguf_kvNS_9allocatorIS1_EEE24__emplace_back_slow_pathIJRKNS_12basic_stringIcNS_11char_traitsIcEENS2_IcEEEERNS0_ISA_NS2_ISA_EEEEEEEPS1_DpOT_, symObjAddr: 0xF450, symBinAddr: 0xACB00, symSize: 0x150 }
  - { offset: 0x25D2C6, size: 0x8, addend: 0x0, symName: __ZN7gguf_kvC2ERKNSt3__112basic_stringIcNS0_11char_traitsIcEENS0_9allocatorIcEEEES8_, symObjAddr: 0xFB70, symBinAddr: 0xAD1E0, symSize: 0xE0 }
  - { offset: 0x25D632, size: 0x8, addend: 0x0, symName: __ZNSt3__16vectorI7gguf_kvNS_9allocatorIS1_EEE24__emplace_back_slow_pathIJRKNS_12basic_stringIcNS_11char_traitsIcEENS2_IcEEEERSA_EEEPS1_DpOT_, symObjAddr: 0xFA20, symBinAddr: 0xAD090, symSize: 0x150 }
  - { offset: 0x25E152, size: 0x8, addend: 0x0, symName: __ZNSt3__16vectorIyNS_9allocatorIyEEE8__appendEm, symObjAddr: 0xFDD0, symBinAddr: 0xAD2C0, symSize: 0x150 }
  - { offset: 0x25E5D8, size: 0x8, addend: 0x0, symName: __ZN7gguf_kvC2IyEERKNSt3__112basic_stringIcNS1_11char_traitsIcEENS1_9allocatorIcEEEERKNS1_6vectorIT_NS5_ISB_EEEE, symObjAddr: 0x10080, symBinAddr: 0xAD570, symSize: 0x160 }
  - { offset: 0x25EC0E, size: 0x8, addend: 0x0, symName: __ZN7gguf_kvC2IyEERKNSt3__112basic_stringIcNS1_11char_traitsIcEENS1_9allocatorIcEEEET_, symObjAddr: 0x10340, symBinAddr: 0xAD830, symSize: 0xF0 }
  - { offset: 0x25F10C, size: 0x8, addend: 0x0, symName: __ZNSt3__16vectorI7gguf_kvNS_9allocatorIS1_EEE24__emplace_back_slow_pathIJRKNS_12basic_stringIcNS_11char_traitsIcEENS2_IcEEEERNS0_IyNS2_IyEEEEEEEPS1_DpOT_, symObjAddr: 0xFF30, symBinAddr: 0xAD420, symSize: 0x150 }
  - { offset: 0x25F615, size: 0x8, addend: 0x0, symName: __ZNSt3__16vectorI7gguf_kvNS_9allocatorIS1_EEE24__emplace_back_slow_pathIJRKNS_12basic_stringIcNS_11char_traitsIcEENS2_IcEEEERyEEEPS1_DpOT_, symObjAddr: 0x101E0, symBinAddr: 0xAD6D0, symSize: 0x160 }
  - { offset: 0x260261, size: 0x8, addend: 0x0, symName: __ZN7gguf_kvC2IxEERKNSt3__112basic_stringIcNS1_11char_traitsIcEENS1_9allocatorIcEEEERKNS1_6vectorIT_NS5_ISB_EEEE, symObjAddr: 0x106E0, symBinAddr: 0xADA70, symSize: 0x160 }
  - { offset: 0x260897, size: 0x8, addend: 0x0, symName: __ZN7gguf_kvC2IxEERKNSt3__112basic_stringIcNS1_11char_traitsIcEENS1_9allocatorIcEEEET_, symObjAddr: 0x109A0, symBinAddr: 0xADD30, symSize: 0xF0 }
  - { offset: 0x260D95, size: 0x8, addend: 0x0, symName: __ZNSt3__16vectorI7gguf_kvNS_9allocatorIS1_EEE24__emplace_back_slow_pathIJRKNS_12basic_stringIcNS_11char_traitsIcEENS2_IcEEEERNS0_IxNS2_IxEEEEEEEPS1_DpOT_, symObjAddr: 0x10590, symBinAddr: 0xAD920, symSize: 0x150 }
  - { offset: 0x26129E, size: 0x8, addend: 0x0, symName: __ZNSt3__16vectorI7gguf_kvNS_9allocatorIS1_EEE24__emplace_back_slow_pathIJRKNS_12basic_stringIcNS_11char_traitsIcEENS2_IcEEEERxEEEPS1_DpOT_, symObjAddr: 0x10840, symBinAddr: 0xADBD0, symSize: 0x160 }
  - { offset: 0x261C7D, size: 0x8, addend: 0x0, symName: __ZNSt3__16vectorIdNS_9allocatorIdEEE8__appendEm, symObjAddr: 0x10A90, symBinAddr: 0xADE20, symSize: 0x150 }
  - { offset: 0x262103, size: 0x8, addend: 0x0, symName: __ZN7gguf_kvC2IdEERKNSt3__112basic_stringIcNS1_11char_traitsIcEENS1_9allocatorIcEEEERKNS1_6vectorIT_NS5_ISB_EEEE, symObjAddr: 0x10D40, symBinAddr: 0xAE0C0, symSize: 0x160 }
  - { offset: 0x262739, size: 0x8, addend: 0x0, symName: __ZN7gguf_kvC2IdEERKNSt3__112basic_stringIcNS1_11char_traitsIcEENS1_9allocatorIcEEEET_, symObjAddr: 0x11000, symBinAddr: 0xAE380, symSize: 0x100 }
  - { offset: 0x262C37, size: 0x8, addend: 0x0, symName: __ZNSt3__16vectorI7gguf_kvNS_9allocatorIS1_EEE24__emplace_back_slow_pathIJRKNS_12basic_stringIcNS_11char_traitsIcEENS2_IcEEEERNS0_IdNS2_IdEEEEEEEPS1_DpOT_, symObjAddr: 0x10BF0, symBinAddr: 0xADF70, symSize: 0x150 }
  - { offset: 0x263140, size: 0x8, addend: 0x0, symName: __ZNSt3__16vectorI7gguf_kvNS_9allocatorIS1_EEE24__emplace_back_slow_pathIJRKNS_12basic_stringIcNS_11char_traitsIcEENS2_IcEEEERdEEEPS1_DpOT_, symObjAddr: 0x10EA0, symBinAddr: 0xAE220, symSize: 0x160 }
  - { offset: 0x263649, size: 0x8, addend: 0x0, symName: _gguf_find_key, symObjAddr: 0x3610, symBinAddr: 0xA14A0, symSize: 0xB0 }
  - { offset: 0x26385A, size: 0x8, addend: 0x0, symName: __ZNK7gguf_kv6get_neEv, symObjAddr: 0x3F30, symBinAddr: 0xA1DC0, symSize: 0x120 }
  - { offset: 0x263D16, size: 0x8, addend: 0x0, symName: __ZNKSt3__16vectorI16gguf_tensor_infoNS_9allocatorIS1_EEE20__throw_length_errorB8ne190102Ev, symObjAddr: 0x11100, symBinAddr: 0xAE480, symSize: 0x10 }
  - { offset: 0x263D40, size: 0x8, addend: 0x0, symName: __ZN7gguf_kvaSEOS_, symObjAddr: 0x11110, symBinAddr: 0xAE490, symSize: 0x120 }
  - { offset: 0x263D4B, size: 0x8, addend: 0x0, symName: _gguf_init_from_file, symObjAddr: 0x39B0, symBinAddr: 0xA1840, symSize: 0x70 }
  - { offset: 0x263F3F, size: 0x8, addend: 0x0, symName: _gguf_type_name, symObjAddr: 0x3A20, symBinAddr: 0xA18B0, symSize: 0x60 }
  - { offset: 0x263F7E, size: 0x8, addend: 0x0, symName: _gguf_type_name, symObjAddr: 0x3A20, symBinAddr: 0xA18B0, symSize: 0x60 }
  - { offset: 0x263F94, size: 0x8, addend: 0x0, symName: _gguf_type_name, symObjAddr: 0x3A20, symBinAddr: 0xA18B0, symSize: 0x60 }
  - { offset: 0x263FB4, size: 0x8, addend: 0x0, symName: _gguf_type_name, symObjAddr: 0x3A20, symBinAddr: 0xA18B0, symSize: 0x60 }
  - { offset: 0x2640A3, size: 0x8, addend: 0x0, symName: _gguf_get_version, symObjAddr: 0x3A80, symBinAddr: 0xA1910, symSize: 0x10 }
  - { offset: 0x2640CE, size: 0x8, addend: 0x0, symName: _gguf_get_alignment, symObjAddr: 0x3A90, symBinAddr: 0xA1920, symSize: 0x10 }
  - { offset: 0x2640F9, size: 0x8, addend: 0x0, symName: _gguf_get_data_offset, symObjAddr: 0x3AA0, symBinAddr: 0xA1930, symSize: 0x10 }
  - { offset: 0x264124, size: 0x8, addend: 0x0, symName: _gguf_get_n_kv, symObjAddr: 0x3AB0, symBinAddr: 0xA1940, symSize: 0x20 }
  - { offset: 0x264178, size: 0x8, addend: 0x0, symName: _gguf_get_key, symObjAddr: 0x3AD0, symBinAddr: 0xA1960, symSize: 0x70 }
  - { offset: 0x2642BF, size: 0x8, addend: 0x0, symName: _gguf_get_kv_type, symObjAddr: 0x3B40, symBinAddr: 0xA19D0, symSize: 0x70 }
  - { offset: 0x264388, size: 0x8, addend: 0x0, symName: _gguf_get_arr_type, symObjAddr: 0x3BB0, symBinAddr: 0xA1A40, symSize: 0x90 }
  - { offset: 0x26447D, size: 0x8, addend: 0x0, symName: _gguf_get_arr_data, symObjAddr: 0x3C40, symBinAddr: 0xA1AD0, symSize: 0x90 }
  - { offset: 0x2645A7, size: 0x8, addend: 0x0, symName: _gguf_get_arr_str, symObjAddr: 0x3CD0, symBinAddr: 0xA1B60, symSize: 0xA0 }
  - { offset: 0x264782, size: 0x8, addend: 0x0, symName: _gguf_get_arr_n, symObjAddr: 0x3D70, symBinAddr: 0xA1C00, symSize: 0x120 }
  - { offset: 0x2649EA, size: 0x8, addend: 0x0, symName: _gguf_get_val_u8, symObjAddr: 0x3E90, symBinAddr: 0xA1D20, symSize: 0xA0 }
  - { offset: 0x264B0A, size: 0x8, addend: 0x0, symName: __ZNK7gguf_kv7get_valIhEERKT_m, symObjAddr: 0x4050, symBinAddr: 0xA1EE0, symSize: 0x110 }
  - { offset: 0x264D2E, size: 0x8, addend: 0x0, symName: _gguf_get_val_i8, symObjAddr: 0x4160, symBinAddr: 0xA1FF0, symSize: 0x1A0 }
  - { offset: 0x265043, size: 0x8, addend: 0x0, symName: _gguf_get_val_u16, symObjAddr: 0x4300, symBinAddr: 0xA2190, symSize: 0x1A0 }
  - { offset: 0x265358, size: 0x8, addend: 0x0, symName: _gguf_get_val_i16, symObjAddr: 0x44A0, symBinAddr: 0xA2330, symSize: 0x1A0 }
  - { offset: 0x26566D, size: 0x8, addend: 0x0, symName: _gguf_get_val_i32, symObjAddr: 0x4640, symBinAddr: 0xA24D0, symSize: 0x1A0 }
  - { offset: 0x265982, size: 0x8, addend: 0x0, symName: _gguf_get_val_f32, symObjAddr: 0x47E0, symBinAddr: 0xA2670, symSize: 0x1A0 }
  - { offset: 0x265C97, size: 0x8, addend: 0x0, symName: _gguf_get_val_u64, symObjAddr: 0x4980, symBinAddr: 0xA2810, symSize: 0x1A0 }
  - { offset: 0x265FAC, size: 0x8, addend: 0x0, symName: _gguf_get_val_i64, symObjAddr: 0x4B20, symBinAddr: 0xA29B0, symSize: 0x1A0 }
  - { offset: 0x2662C1, size: 0x8, addend: 0x0, symName: _gguf_get_val_f64, symObjAddr: 0x4CC0, symBinAddr: 0xA2B50, symSize: 0x1A0 }
  - { offset: 0x2665D6, size: 0x8, addend: 0x0, symName: _gguf_get_val_bool, symObjAddr: 0x4E60, symBinAddr: 0xA2CF0, symSize: 0x1A0 }
  - { offset: 0x2668B5, size: 0x8, addend: 0x0, symName: __ZNK7gguf_kv7get_valIbEERKT_m, symObjAddr: 0x5000, symBinAddr: 0xA2E90, symSize: 0x110 }
  - { offset: 0x266AC4, size: 0x8, addend: 0x0, symName: _gguf_get_val_str, symObjAddr: 0x5110, symBinAddr: 0xA2FA0, symSize: 0x100 }
  - { offset: 0x266CE1, size: 0x8, addend: 0x0, symName: _gguf_get_val_data, symObjAddr: 0x5210, symBinAddr: 0xA30A0, symSize: 0xD0 }
  - { offset: 0x266E31, size: 0x8, addend: 0x0, symName: _gguf_get_n_tensors, symObjAddr: 0x52E0, symBinAddr: 0xA3170, symSize: 0x20 }
  - { offset: 0x266E8A, size: 0x8, addend: 0x0, symName: _gguf_find_tensor, symObjAddr: 0x5300, symBinAddr: 0xA3190, symSize: 0x90 }
  - { offset: 0x266F25, size: 0x8, addend: 0x0, symName: _gguf_get_tensor_name, symObjAddr: 0x5390, symBinAddr: 0xA3220, symSize: 0x60 }
  - { offset: 0x266FBA, size: 0x8, addend: 0x0, symName: _gguf_get_tensor_offset, symObjAddr: 0x53F0, symBinAddr: 0xA3280, symSize: 0x60 }
  - { offset: 0x267073, size: 0x8, addend: 0x0, symName: _gguf_get_tensor_type, symObjAddr: 0x5450, symBinAddr: 0xA32E0, symSize: 0x60 }
  - { offset: 0x267127, size: 0x8, addend: 0x0, symName: _gguf_get_tensor_size, symObjAddr: 0x54B0, symBinAddr: 0xA3340, symSize: 0x60 }
  - { offset: 0x2672F6, size: 0x8, addend: 0x0, symName: _gguf_remove_key, symObjAddr: 0x5510, symBinAddr: 0xA33A0, symSize: 0x120 }
  - { offset: 0x267635, size: 0x8, addend: 0x0, symName: __ZN7gguf_kvaSEOS_, symObjAddr: 0x11110, symBinAddr: 0xAE490, symSize: 0x120 }
  - { offset: 0x267FE1, size: 0x8, addend: 0x0, symName: _gguf_set_val_u8, symObjAddr: 0x5630, symBinAddr: 0xA34C0, symSize: 0x2E0 }
  - { offset: 0x268A3E, size: 0x8, addend: 0x0, symName: __ZNSt3__19allocatorI7gguf_kvE9constructB8ne190102IS1_JRPKcRhEEEvPT_DpOT0_, symObjAddr: 0x11390, symBinAddr: 0xAE710, symSize: 0xF0 }
  - { offset: 0x26907A, size: 0x8, addend: 0x0, symName: __ZNSt3__16vectorI7gguf_kvNS_9allocatorIS1_EEE24__emplace_back_slow_pathIJRPKcRhEEEPS1_DpOT_, symObjAddr: 0x11230, symBinAddr: 0xAE5B0, symSize: 0x160 }
  - { offset: 0x269545, size: 0x8, addend: 0x0, symName: __ZNSt3__114__split_bufferI7gguf_kvRNS_9allocatorIS1_EEED1Ev, symObjAddr: 0xBD20, symBinAddr: 0xA9860, symSize: 0x30 }
  - { offset: 0x26966D, size: 0x8, addend: 0x0, symName: _gguf_set_val_i8, symObjAddr: 0x5910, symBinAddr: 0xA37A0, symSize: 0x2E0 }
  - { offset: 0x26A0B8, size: 0x8, addend: 0x0, symName: __ZNSt3__19allocatorI7gguf_kvE9constructB8ne190102IS1_JRPKcRaEEEvPT_DpOT0_, symObjAddr: 0x115E0, symBinAddr: 0xAE960, symSize: 0xF0 }
  - { offset: 0x26A6F4, size: 0x8, addend: 0x0, symName: __ZNSt3__16vectorI7gguf_kvNS_9allocatorIS1_EEE24__emplace_back_slow_pathIJRPKcRaEEEPS1_DpOT_, symObjAddr: 0x11480, symBinAddr: 0xAE800, symSize: 0x160 }
  - { offset: 0x26ACC4, size: 0x8, addend: 0x0, symName: _gguf_set_val_u16, symObjAddr: 0x5BF0, symBinAddr: 0xA3A80, symSize: 0x2E0 }
  - { offset: 0x26B70F, size: 0x8, addend: 0x0, symName: __ZNSt3__19allocatorI7gguf_kvE9constructB8ne190102IS1_JRPKcRtEEEvPT_DpOT0_, symObjAddr: 0x11830, symBinAddr: 0xAEBB0, symSize: 0xF0 }
  - { offset: 0x26BD4B, size: 0x8, addend: 0x0, symName: __ZNSt3__16vectorI7gguf_kvNS_9allocatorIS1_EEE24__emplace_back_slow_pathIJRPKcRtEEEPS1_DpOT_, symObjAddr: 0x116D0, symBinAddr: 0xAEA50, symSize: 0x160 }
  - { offset: 0x26C31B, size: 0x8, addend: 0x0, symName: _gguf_set_val_i16, symObjAddr: 0x5ED0, symBinAddr: 0xA3D60, symSize: 0x2E0 }
  - { offset: 0x26CD66, size: 0x8, addend: 0x0, symName: __ZNSt3__19allocatorI7gguf_kvE9constructB8ne190102IS1_JRPKcRsEEEvPT_DpOT0_, symObjAddr: 0x11A80, symBinAddr: 0xAEE00, symSize: 0xF0 }
  - { offset: 0x26D3A2, size: 0x8, addend: 0x0, symName: __ZNSt3__16vectorI7gguf_kvNS_9allocatorIS1_EEE24__emplace_back_slow_pathIJRPKcRsEEEPS1_DpOT_, symObjAddr: 0x11920, symBinAddr: 0xAECA0, symSize: 0x160 }
  - { offset: 0x26D972, size: 0x8, addend: 0x0, symName: _gguf_set_val_u32, symObjAddr: 0x61B0, symBinAddr: 0xA4040, symSize: 0x2E0 }
  - { offset: 0x26E473, size: 0x8, addend: 0x0, symName: __ZNSt3__19allocatorI7gguf_kvE9constructB8ne190102IS1_JRPKcRjEEEvPT_DpOT0_, symObjAddr: 0x11CD0, symBinAddr: 0xAF050, symSize: 0xF0 }
  - { offset: 0x26EAB7, size: 0x8, addend: 0x0, symName: __ZNSt3__16vectorI7gguf_kvNS_9allocatorIS1_EEE24__emplace_back_slow_pathIJRPKcRjEEEPS1_DpOT_, symObjAddr: 0x11B70, symBinAddr: 0xAEEF0, symSize: 0x160 }
  - { offset: 0x26F087, size: 0x8, addend: 0x0, symName: _gguf_set_val_i32, symObjAddr: 0x6490, symBinAddr: 0xA4320, symSize: 0x2E0 }
  - { offset: 0x26FAD2, size: 0x8, addend: 0x0, symName: __ZNSt3__19allocatorI7gguf_kvE9constructB8ne190102IS1_JRPKcRiEEEvPT_DpOT0_, symObjAddr: 0x11F20, symBinAddr: 0xAF2A0, symSize: 0xF0 }
  - { offset: 0x270116, size: 0x8, addend: 0x0, symName: __ZNSt3__16vectorI7gguf_kvNS_9allocatorIS1_EEE24__emplace_back_slow_pathIJRPKcRiEEEPS1_DpOT_, symObjAddr: 0x11DC0, symBinAddr: 0xAF140, symSize: 0x160 }
  - { offset: 0x2706E6, size: 0x8, addend: 0x0, symName: _gguf_set_val_f32, symObjAddr: 0x6770, symBinAddr: 0xA4600, symSize: 0x2E0 }
  - { offset: 0x271131, size: 0x8, addend: 0x0, symName: __ZNSt3__19allocatorI7gguf_kvE9constructB8ne190102IS1_JRPKcRfEEEvPT_DpOT0_, symObjAddr: 0x12170, symBinAddr: 0xAF4F0, symSize: 0xF0 }
  - { offset: 0x271775, size: 0x8, addend: 0x0, symName: __ZNSt3__16vectorI7gguf_kvNS_9allocatorIS1_EEE24__emplace_back_slow_pathIJRPKcRfEEEPS1_DpOT_, symObjAddr: 0x12010, symBinAddr: 0xAF390, symSize: 0x160 }
  - { offset: 0x271D45, size: 0x8, addend: 0x0, symName: _gguf_set_val_u64, symObjAddr: 0x6A50, symBinAddr: 0xA48E0, symSize: 0x2E0 }
  - { offset: 0x272784, size: 0x8, addend: 0x0, symName: __ZNSt3__19allocatorI7gguf_kvE9constructB8ne190102IS1_JRPKcRyEEEvPT_DpOT0_, symObjAddr: 0x123C0, symBinAddr: 0xAF740, symSize: 0xF0 }
  - { offset: 0x272DC8, size: 0x8, addend: 0x0, symName: __ZNSt3__16vectorI7gguf_kvNS_9allocatorIS1_EEE24__emplace_back_slow_pathIJRPKcRyEEEPS1_DpOT_, symObjAddr: 0x12260, symBinAddr: 0xAF5E0, symSize: 0x160 }
  - { offset: 0x273398, size: 0x8, addend: 0x0, symName: _gguf_set_val_i64, symObjAddr: 0x6D30, symBinAddr: 0xA4BC0, symSize: 0x2E0 }
  - { offset: 0x273DD7, size: 0x8, addend: 0x0, symName: __ZNSt3__19allocatorI7gguf_kvE9constructB8ne190102IS1_JRPKcRxEEEvPT_DpOT0_, symObjAddr: 0x12610, symBinAddr: 0xAF990, symSize: 0xF0 }
  - { offset: 0x27441B, size: 0x8, addend: 0x0, symName: __ZNSt3__16vectorI7gguf_kvNS_9allocatorIS1_EEE24__emplace_back_slow_pathIJRPKcRxEEEPS1_DpOT_, symObjAddr: 0x124B0, symBinAddr: 0xAF830, symSize: 0x160 }
  - { offset: 0x2749EB, size: 0x8, addend: 0x0, symName: _gguf_set_val_f64, symObjAddr: 0x7010, symBinAddr: 0xA4EA0, symSize: 0x2E0 }
  - { offset: 0x27542A, size: 0x8, addend: 0x0, symName: __ZNSt3__19allocatorI7gguf_kvE9constructB8ne190102IS1_JRPKcRdEEEvPT_DpOT0_, symObjAddr: 0x12860, symBinAddr: 0xAFBE0, symSize: 0xF0 }
  - { offset: 0x275A6E, size: 0x8, addend: 0x0, symName: __ZNSt3__16vectorI7gguf_kvNS_9allocatorIS1_EEE24__emplace_back_slow_pathIJRPKcRdEEEPS1_DpOT_, symObjAddr: 0x12700, symBinAddr: 0xAFA80, symSize: 0x160 }
  - { offset: 0x27603E, size: 0x8, addend: 0x0, symName: _gguf_set_val_bool, symObjAddr: 0x72F0, symBinAddr: 0xA5180, symSize: 0x2E0 }
  - { offset: 0x276A89, size: 0x8, addend: 0x0, symName: __ZNSt3__19allocatorI7gguf_kvE9constructB8ne190102IS1_JRPKcRbEEEvPT_DpOT0_, symObjAddr: 0x12AB0, symBinAddr: 0xAFE30, symSize: 0xF0 }
  - { offset: 0x2770C5, size: 0x8, addend: 0x0, symName: __ZNSt3__16vectorI7gguf_kvNS_9allocatorIS1_EEE24__emplace_back_slow_pathIJRPKcRbEEEPS1_DpOT_, symObjAddr: 0x12950, symBinAddr: 0xAFCD0, symSize: 0x160 }
  - { offset: 0x27769B, size: 0x8, addend: 0x0, symName: _gguf_set_val_str, symObjAddr: 0x75D0, symBinAddr: 0xA5460, symSize: 0x360 }
  - { offset: 0x278569, size: 0x8, addend: 0x0, symName: __ZNSt3__19allocatorI7gguf_kvE9constructB8ne190102IS1_JRPKcNS_12basic_stringIcNS_11char_traitsIcEENS0_IcEEEEEEEvPT_DpOT0_, symObjAddr: 0x12D00, symBinAddr: 0xB0080, symSize: 0xF0 }
  - { offset: 0x278BB4, size: 0x8, addend: 0x0, symName: __ZNSt3__16vectorI7gguf_kvNS_9allocatorIS1_EEE24__emplace_back_slow_pathIJRPKcNS_12basic_stringIcNS_11char_traitsIcEENS2_IcEEEEEEEPS1_DpOT_, symObjAddr: 0x12BA0, symBinAddr: 0xAFF20, symSize: 0x160 }
  - { offset: 0x279369, size: 0x8, addend: 0x0, symName: _gguf_set_arr_data, symObjAddr: 0x7930, symBinAddr: 0xA57C0, symSize: 0x470 }
  - { offset: 0x27A3F6, size: 0x8, addend: 0x0, symName: __ZNSt3__19allocatorI7gguf_kvE9constructB8ne190102IS1_JRPKcRNS_6vectorIaNS0_IaEEEEEEEvPT_DpOT0_, symObjAddr: 0x12F50, symBinAddr: 0xB02D0, symSize: 0xF0 }
  - { offset: 0x27AA41, size: 0x8, addend: 0x0, symName: __ZNSt3__16vectorI7gguf_kvNS_9allocatorIS1_EEE24__emplace_back_slow_pathIJRPKcRNS0_IaNS2_IaEEEEEEEPS1_DpOT_, symObjAddr: 0x12DF0, symBinAddr: 0xB0170, symSize: 0x160 }
  - { offset: 0x27AEF4, size: 0x8, addend: 0x0, symName: __ZNKSt3__16vectorIaNS_9allocatorIaEEE20__throw_length_errorB8ne190102Ev, symObjAddr: 0xAC30, symBinAddr: 0xA8A50, symSize: 0x10 }
  - { offset: 0x27B26B, size: 0x8, addend: 0x0, symName: _gguf_set_arr_str, symObjAddr: 0x7DA0, symBinAddr: 0xA5C30, symSize: 0x440 }
  - { offset: 0x27C2A5, size: 0x8, addend: 0x0, symName: __ZNSt3__19allocatorI7gguf_kvE9constructB8ne190102IS1_JRPKcRNS_6vectorINS_12basic_stringIcNS_11char_traitsIcEENS0_IcEEEENS0_ISC_EEEEEEEvPT_DpOT0_, symObjAddr: 0x13210, symBinAddr: 0xB0520, symSize: 0xF0 }
  - { offset: 0x27C8F0, size: 0x8, addend: 0x0, symName: __ZNSt3__16vectorI7gguf_kvNS_9allocatorIS1_EEE24__emplace_back_slow_pathIJRPKcRNS0_INS_12basic_stringIcNS_11char_traitsIcEENS2_IcEEEENS2_ISD_EEEEEEEPS1_DpOT_, symObjAddr: 0x130B0, symBinAddr: 0xB03C0, symSize: 0x160 }
  - { offset: 0x27CDBB, size: 0x8, addend: 0x0, symName: __ZNSt3__16vectorI7gguf_kvNS_9allocatorIS1_EEE24__emplace_back_slow_pathIJRKNS_12basic_stringIcNS_11char_traitsIcEENS2_IcEEEERNS0_ISA_NS2_ISA_EEEEEEEPS1_DpOT_, symObjAddr: 0xF450, symBinAddr: 0xACB00, symSize: 0x150 }
  - { offset: 0x27D1ED, size: 0x8, addend: 0x0, symName: _gguf_set_kv, symObjAddr: 0x8250, symBinAddr: 0xA6070, symSize: 0xC20 }
  - { offset: 0x27F30C, size: 0x8, addend: 0x0, symName: __ZNKSt3__16vectorIPKcNS_9allocatorIS2_EEE20__throw_length_errorB8ne190102Ev, symObjAddr: 0x13300, symBinAddr: 0xB0610, symSize: 0x10 }
  - { offset: 0x27F336, size: 0x8, addend: 0x0, symName: __ZN7gguf_kvC2IhEERKNSt3__112basic_stringIcNS1_11char_traitsIcEENS1_9allocatorIcEEEERKNS1_6vectorIT_NS5_ISB_EEEE.cold.1, symObjAddr: 0x13310, symBinAddr: 0x155E30, symSize: 0x20 }
  - { offset: 0x27F3EF, size: 0x8, addend: 0x0, symName: _gguf_add_tensor, symObjAddr: 0x8E70, symBinAddr: 0xA6C90, symSize: 0x2D0 }
  - { offset: 0x27F8F4, size: 0x8, addend: 0x0, symName: _gguf_set_tensor_type, symObjAddr: 0x9140, symBinAddr: 0xA6F60, symSize: 0x1D0 }
  - { offset: 0x27FB47, size: 0x8, addend: 0x0, symName: _gguf_set_tensor_data, symObjAddr: 0x9310, symBinAddr: 0xA7130, symSize: 0xA0 }
  - { offset: 0x280213, size: 0x8, addend: 0x0, symName: __Z17gguf_write_to_bufPK12gguf_contextRNSt3__16vectorIaNS2_9allocatorIaEEEEb, symObjAddr: 0x93B0, symBinAddr: 0xA71D0, symSize: 0x700 }
  - { offset: 0x2824E3, size: 0x8, addend: 0x0, symName: __ZNK11gguf_writer5writeIjEEvRKT_, symObjAddr: 0x9AB0, symBinAddr: 0xA78D0, symSize: 0x340 }
  - { offset: 0x282934, size: 0x8, addend: 0x0, symName: __ZNK11gguf_writer5writeERK7gguf_kv, symObjAddr: 0x9DF0, symBinAddr: 0xA7C10, symSize: 0x370 }
  - { offset: 0x28361E, size: 0x8, addend: 0x0, symName: __ZNK11gguf_writer17write_tensor_metaERK16gguf_tensor_info, symObjAddr: 0xA160, symBinAddr: 0xA7F80, symSize: 0x280 }
  - { offset: 0x2840A1, size: 0x8, addend: 0x0, symName: __ZNK11gguf_writer17write_tensor_dataERK16gguf_tensor_infomm, symObjAddr: 0xA3E0, symBinAddr: 0xA8200, symSize: 0x390 }
  - { offset: 0x284D21, size: 0x8, addend: 0x0, symName: __ZNK11gguf_writer5writeERKNSt3__112basic_stringIcNS0_11char_traitsIcEENS0_9allocatorIcEEEE, symObjAddr: 0xA9F0, symBinAddr: 0xA8810, symSize: 0x240 }
  - { offset: 0x285846, size: 0x8, addend: 0x0, symName: __ZNK11gguf_writer5writeIiEEvRKT_, symObjAddr: 0xAD00, symBinAddr: 0xA8A60, symSize: 0x340 }
  - { offset: 0x285C97, size: 0x8, addend: 0x0, symName: __ZNSt3__16vectorIaNS_9allocatorIaEEE18__insert_with_sizeB8ne190102INS_11__wrap_iterIPKaEES8_EENS5_IPaEES8_T_T0_l, symObjAddr: 0xB040, symBinAddr: 0xA8DA0, symSize: 0x280 }
  - { offset: 0x2867BD, size: 0x8, addend: 0x0, symName: __ZNK11gguf_writer5writeEPKc, symObjAddr: 0xB2C0, symBinAddr: 0xA9020, symSize: 0xE0 }
  - { offset: 0x286F9C, size: 0x8, addend: 0x0, symName: _gguf_write_to_file, symObjAddr: 0xA770, symBinAddr: 0xA8590, symSize: 0xE0 }
  - { offset: 0x287429, size: 0x8, addend: 0x0, symName: _gguf_get_meta_size, symObjAddr: 0xA850, symBinAddr: 0xA8670, symSize: 0x70 }
  - { offset: 0x28779D, size: 0x8, addend: 0x0, symName: _gguf_get_meta_data, symObjAddr: 0xA8C0, symBinAddr: 0xA86E0, symSize: 0x80 }
  - { offset: 0x2883FF, size: 0x8, addend: 0x0, symName: __ZNSt3__13mapI9gguf_typemNS_4lessIS1_EENS_9allocatorINS_4pairIKS1_mEEEEEC2B8ne190102ESt16initializer_listIS7_ERKS3_, symObjAddr: 0xB3A0, symBinAddr: 0xA9100, symSize: 0x170 }
  - { offset: 0x288E93, size: 0x8, addend: 0x0, symName: __ZNSt3__13mapI9gguf_typePKcNS_4lessIS1_EENS_9allocatorINS_4pairIKS1_S3_EEEEEC2B8ne190102ESt16initializer_listIS9_ERKS5_, symObjAddr: 0xB6D0, symBinAddr: 0xA92B0, symSize: 0x170 }
  - { offset: 0x2898A7, size: 0x8, addend: 0x0, symName: __ZNSt3__16vectorI7gguf_kvNS_9allocatorIS1_EEE24__emplace_back_slow_pathIJRKNS_12basic_stringIcNS_11char_traitsIcEENS2_IcEEEERNS0_IhNS2_IhEEEEEEEPS1_DpOT_, symObjAddr: 0xB9E0, symBinAddr: 0xA95B0, symSize: 0x150 }
  - { offset: 0x289AE3, size: 0x8, addend: 0x0, symName: __ZNKSt3__16vectorI7gguf_kvNS_9allocatorIS1_EEE20__throw_length_errorB8ne190102Ev, symObjAddr: 0xBD50, symBinAddr: 0xA9890, symSize: 0x10 }
  - { offset: 0x289B0D, size: 0x8, addend: 0x0, symName: __ZNSt3__134__uninitialized_allocator_relocateB8ne190102INS_9allocatorI7gguf_kvEES2_EEvRT_PT0_S7_S7_, symObjAddr: 0xBD60, symBinAddr: 0xA98A0, symSize: 0x150 }
  - { offset: 0x289B18, size: 0x8, addend: 0x0, symName: __ZNSt3__114__split_bufferI7gguf_kvRNS_9allocatorIS1_EEED1Ev, symObjAddr: 0xBD20, symBinAddr: 0xA9860, symSize: 0x30 }
  - { offset: 0x289DE3, size: 0x8, addend: 0x0, symName: __ZN7gguf_kvC2IhEERKNSt3__112basic_stringIcNS1_11char_traitsIcEENS1_9allocatorIcEEEERKNS1_6vectorIT_NS5_ISB_EEEE.cold.1, symObjAddr: 0x13310, symBinAddr: 0x155E30, symSize: 0x20 }
  - { offset: 0x289F0C, size: 0x8, addend: 0x0, symName: __ZNSt3__114__split_bufferI7gguf_kvRNS_9allocatorIS1_EEE17__destruct_at_endB8ne190102EPS1_, symObjAddr: 0xBEB0, symBinAddr: 0xA99F0, symSize: 0xD0 }
  - { offset: 0x28A6E0, size: 0x8, addend: 0x0, symName: __ZN7gguf_kvC2IhEERKNSt3__112basic_stringIcNS1_11char_traitsIcEENS1_9allocatorIcEEEET_.cold.1, symObjAddr: 0x13330, symBinAddr: 0x155E50, symSize: 0x20 }
  - { offset: 0x28A817, size: 0x8, addend: 0x0, symName: __ZN7gguf_kvC2IaEERKNSt3__112basic_stringIcNS1_11char_traitsIcEENS1_9allocatorIcEEEERKNS1_6vectorIT_NS5_ISB_EEEE.cold.1, symObjAddr: 0x13350, symBinAddr: 0x155E70, symSize: 0x20 }
  - { offset: 0x28A92A, size: 0x8, addend: 0x0, symName: __ZN7gguf_kvC2IaEERKNSt3__112basic_stringIcNS1_11char_traitsIcEENS1_9allocatorIcEEEET_.cold.1, symObjAddr: 0x13370, symBinAddr: 0x155E90, symSize: 0x20 }
  - { offset: 0x28ACE3, size: 0x8, addend: 0x0, symName: __ZNKSt3__16vectorItNS_9allocatorItEEE20__throw_length_errorB8ne190102Ev, symObjAddr: 0xC950, symBinAddr: 0xAA490, symSize: 0x10 }
  - { offset: 0x28AD0D, size: 0x8, addend: 0x0, symName: __ZNSt3__16vectorI7gguf_kvNS_9allocatorIS1_EEE24__emplace_back_slow_pathIJRKNS_12basic_stringIcNS_11char_traitsIcEENS2_IcEEEERNS0_ItNS2_ItEEEEEEEPS1_DpOT_, symObjAddr: 0xC960, symBinAddr: 0xAA4A0, symSize: 0x150 }
  - { offset: 0x28AD18, size: 0x8, addend: 0x0, symName: __ZN7gguf_kvC2ItEERKNSt3__112basic_stringIcNS1_11char_traitsIcEENS1_9allocatorIcEEEERKNS1_6vectorIT_NS5_ISB_EEEE.cold.1, symObjAddr: 0x13390, symBinAddr: 0x155EB0, symSize: 0x20 }
  - { offset: 0x28AE2B, size: 0x8, addend: 0x0, symName: __ZN7gguf_kvC2ItEERKNSt3__112basic_stringIcNS1_11char_traitsIcEENS1_9allocatorIcEEEET_.cold.1, symObjAddr: 0x133B0, symBinAddr: 0x155ED0, symSize: 0x20 }
  - { offset: 0x28B1E4, size: 0x8, addend: 0x0, symName: __ZNKSt3__16vectorIsNS_9allocatorIsEEE20__throw_length_errorB8ne190102Ev, symObjAddr: 0xCF90, symBinAddr: 0xAAAD0, symSize: 0x10 }
  - { offset: 0x28B20E, size: 0x8, addend: 0x0, symName: __ZNSt3__16vectorI7gguf_kvNS_9allocatorIS1_EEE24__emplace_back_slow_pathIJRKNS_12basic_stringIcNS_11char_traitsIcEENS2_IcEEEERNS0_IsNS2_IsEEEEEEEPS1_DpOT_, symObjAddr: 0xCFA0, symBinAddr: 0xAAAE0, symSize: 0x150 }
  - { offset: 0x28B219, size: 0x8, addend: 0x0, symName: __ZN7gguf_kvC2IsEERKNSt3__112basic_stringIcNS1_11char_traitsIcEENS1_9allocatorIcEEEERKNS1_6vectorIT_NS5_ISB_EEEE.cold.1, symObjAddr: 0x133D0, symBinAddr: 0x155EF0, symSize: 0x20 }
  - { offset: 0x28B32C, size: 0x8, addend: 0x0, symName: __ZN7gguf_kvC2IsEERKNSt3__112basic_stringIcNS1_11char_traitsIcEENS1_9allocatorIcEEEET_.cold.1, symObjAddr: 0x133F0, symBinAddr: 0x155F10, symSize: 0x20 }
  - { offset: 0x28B6F1, size: 0x8, addend: 0x0, symName: __ZNSt3__16vectorI7gguf_kvNS_9allocatorIS1_EEE24__emplace_back_slow_pathIJRKNS_12basic_stringIcNS_11char_traitsIcEENS2_IcEEEERNS0_IjNS2_IjEEEEEEEPS1_DpOT_, symObjAddr: 0xD600, symBinAddr: 0xAAFE0, symSize: 0x150 }
  - { offset: 0x28B6FC, size: 0x8, addend: 0x0, symName: __ZN7gguf_kvC2IjEERKNSt3__112basic_stringIcNS1_11char_traitsIcEENS1_9allocatorIcEEEERKNS1_6vectorIT_NS5_ISB_EEEE.cold.1, symObjAddr: 0x13410, symBinAddr: 0x155F30, symSize: 0x20 }
  - { offset: 0x28B80F, size: 0x8, addend: 0x0, symName: __ZN7gguf_kvC2IjEERKNSt3__112basic_stringIcNS1_11char_traitsIcEENS1_9allocatorIcEEEET_.cold.1, symObjAddr: 0x13430, symBinAddr: 0x155F50, symSize: 0x20 }
  - { offset: 0x28BBD4, size: 0x8, addend: 0x0, symName: __ZNSt3__16vectorI7gguf_kvNS_9allocatorIS1_EEE24__emplace_back_slow_pathIJRKNS_12basic_stringIcNS_11char_traitsIcEENS2_IcEEEERNS0_IiNS2_IiEEEEEEEPS1_DpOT_, symObjAddr: 0xDC60, symBinAddr: 0xAB4E0, symSize: 0x150 }
  - { offset: 0x28BBDF, size: 0x8, addend: 0x0, symName: __ZN7gguf_kvC2IiEERKNSt3__112basic_stringIcNS1_11char_traitsIcEENS1_9allocatorIcEEEERKNS1_6vectorIT_NS5_ISB_EEEE.cold.1, symObjAddr: 0x13450, symBinAddr: 0x155F70, symSize: 0x20 }
  - { offset: 0x28BCF2, size: 0x8, addend: 0x0, symName: __ZN7gguf_kvC2IiEERKNSt3__112basic_stringIcNS1_11char_traitsIcEENS1_9allocatorIcEEEET_.cold.1, symObjAddr: 0x13470, symBinAddr: 0x155F90, symSize: 0x20 }
  - { offset: 0x28C0C3, size: 0x8, addend: 0x0, symName: __ZNSt3__16vectorI7gguf_kvNS_9allocatorIS1_EEE24__emplace_back_slow_pathIJRKNS_12basic_stringIcNS_11char_traitsIcEENS2_IcEEEERNS0_IfNS2_IfEEEEEEEPS1_DpOT_, symObjAddr: 0xE2C0, symBinAddr: 0xAB9E0, symSize: 0x150 }
  - { offset: 0x28C0CE, size: 0x8, addend: 0x0, symName: __ZN7gguf_kvC2IfEERKNSt3__112basic_stringIcNS1_11char_traitsIcEENS1_9allocatorIcEEEERKNS1_6vectorIT_NS5_ISB_EEEE.cold.1, symObjAddr: 0x13490, symBinAddr: 0x155FB0, symSize: 0x20 }
  - { offset: 0x28C1E1, size: 0x8, addend: 0x0, symName: __ZN7gguf_kvC2IfEERKNSt3__112basic_stringIcNS1_11char_traitsIcEENS1_9allocatorIcEEEET_.cold.1, symObjAddr: 0x134B0, symBinAddr: 0x155FD0, symSize: 0x20 }
  - { offset: 0x28C4D3, size: 0x8, addend: 0x0, symName: __ZNSt3__16vectorIbNS_9allocatorIbEEE7reserveEm, symObjAddr: 0xEA70, symBinAddr: 0xAC190, symSize: 0x130 }
  - { offset: 0x28C90B, size: 0x8, addend: 0x0, symName: __ZNKSt3__16vectorIbNS_9allocatorIbEEE20__throw_length_errorB8ne190102Ev, symObjAddr: 0xEBA0, symBinAddr: 0xAC2C0, symSize: 0x10 }
  - { offset: 0x28C935, size: 0x8, addend: 0x0, symName: __ZNSt3__16vectorI7gguf_kvNS_9allocatorIS1_EEE24__emplace_back_slow_pathIJRKNS_12basic_stringIcNS_11char_traitsIcEENS2_IcEEEERNS0_IbNS2_IbEEEEEEEPS1_DpOT_, symObjAddr: 0xEBB0, symBinAddr: 0xAC2D0, symSize: 0x150 }
  - { offset: 0x28CB41, size: 0x8, addend: 0x0, symName: __ZN7gguf_kvC2IbEERKNSt3__112basic_stringIcNS1_11char_traitsIcEENS1_9allocatorIcEEEERKNS1_6vectorIT_NS5_ISB_EEEE.cold.1, symObjAddr: 0x134D0, symBinAddr: 0x155FF0, symSize: 0x20 }
  - { offset: 0x28CC54, size: 0x8, addend: 0x0, symName: __ZN7gguf_kvC2IbEERKNSt3__112basic_stringIcNS1_11char_traitsIcEENS1_9allocatorIcEEEET_.cold.1, symObjAddr: 0x134F0, symBinAddr: 0x156010, symSize: 0x20 }
  - { offset: 0x28CDC7, size: 0x8, addend: 0x0, symName: __ZNSt3__16vectorINS_12basic_stringIcNS_11char_traitsIcEENS_9allocatorIcEEEENS4_IS6_EEE8__appendEm, symObjAddr: 0xF240, symBinAddr: 0xAC960, symSize: 0x1A0 }
  - { offset: 0x28D6F3, size: 0x8, addend: 0x0, symName: __ZNSt3__16vectorINS_12basic_stringIcNS_11char_traitsIcEENS_9allocatorIcEEEENS4_IS6_EEE18__assign_with_sizeB8ne190102IPS6_SA_EEvT_T0_l, symObjAddr: 0xF6A0, symBinAddr: 0xACD50, symSize: 0x340 }
  - { offset: 0x28E4F4, size: 0x8, addend: 0x0, symName: __ZN7gguf_kvC2ERKNSt3__112basic_stringIcNS0_11char_traitsIcEENS0_9allocatorIcEEEERKNS0_6vectorIS6_NS4_IS6_EEEE.cold.1, symObjAddr: 0x13510, symBinAddr: 0x156030, symSize: 0x20 }
  - { offset: 0x28ECB0, size: 0x8, addend: 0x0, symName: __ZN7gguf_kvC2ERKNSt3__112basic_stringIcNS0_11char_traitsIcEENS0_9allocatorIcEEEES8_.cold.1, symObjAddr: 0x13530, symBinAddr: 0x156050, symSize: 0x20 }
  - { offset: 0x28F1A7, size: 0x8, addend: 0x0, symName: __ZNKSt3__16vectorIyNS_9allocatorIyEEE20__throw_length_errorB8ne190102Ev, symObjAddr: 0xFF20, symBinAddr: 0xAD410, symSize: 0x10 }
  - { offset: 0x28F1D1, size: 0x8, addend: 0x0, symName: __ZNSt3__16vectorI7gguf_kvNS_9allocatorIS1_EEE24__emplace_back_slow_pathIJRKNS_12basic_stringIcNS_11char_traitsIcEENS2_IcEEEERNS0_IyNS2_IyEEEEEEEPS1_DpOT_, symObjAddr: 0xFF30, symBinAddr: 0xAD420, symSize: 0x150 }
  - { offset: 0x28F1DC, size: 0x8, addend: 0x0, symName: __ZN7gguf_kvC2IyEERKNSt3__112basic_stringIcNS1_11char_traitsIcEENS1_9allocatorIcEEEERKNS1_6vectorIT_NS5_ISB_EEEE.cold.1, symObjAddr: 0x13550, symBinAddr: 0x156070, symSize: 0x20 }
  - { offset: 0x28F2EF, size: 0x8, addend: 0x0, symName: __ZN7gguf_kvC2IyEERKNSt3__112basic_stringIcNS1_11char_traitsIcEENS1_9allocatorIcEEEET_.cold.1, symObjAddr: 0x13570, symBinAddr: 0x156090, symSize: 0x20 }
  - { offset: 0x28F6C0, size: 0x8, addend: 0x0, symName: __ZNSt3__16vectorI7gguf_kvNS_9allocatorIS1_EEE24__emplace_back_slow_pathIJRKNS_12basic_stringIcNS_11char_traitsIcEENS2_IcEEEERNS0_IxNS2_IxEEEEEEEPS1_DpOT_, symObjAddr: 0x10590, symBinAddr: 0xAD920, symSize: 0x150 }
  - { offset: 0x28F6CB, size: 0x8, addend: 0x0, symName: __ZN7gguf_kvC2IxEERKNSt3__112basic_stringIcNS1_11char_traitsIcEENS1_9allocatorIcEEEERKNS1_6vectorIT_NS5_ISB_EEEE.cold.1, symObjAddr: 0x13590, symBinAddr: 0x1560B0, symSize: 0x20 }
  - { offset: 0x28F7DE, size: 0x8, addend: 0x0, symName: __ZN7gguf_kvC2IxEERKNSt3__112basic_stringIcNS1_11char_traitsIcEENS1_9allocatorIcEEEET_.cold.1, symObjAddr: 0x135B0, symBinAddr: 0x1560D0, symSize: 0x20 }
  - { offset: 0x28FBAF, size: 0x8, addend: 0x0, symName: __ZNSt3__16vectorI7gguf_kvNS_9allocatorIS1_EEE24__emplace_back_slow_pathIJRKNS_12basic_stringIcNS_11char_traitsIcEENS2_IcEEEERNS0_IdNS2_IdEEEEEEEPS1_DpOT_, symObjAddr: 0x10BF0, symBinAddr: 0xADF70, symSize: 0x150 }
  - { offset: 0x28FBBA, size: 0x8, addend: 0x0, symName: __ZN7gguf_kvC2IdEERKNSt3__112basic_stringIcNS1_11char_traitsIcEENS1_9allocatorIcEEEERKNS1_6vectorIT_NS5_ISB_EEEE.cold.1, symObjAddr: 0x135D0, symBinAddr: 0x1560F0, symSize: 0x20 }
  - { offset: 0x28FCCD, size: 0x8, addend: 0x0, symName: __ZN7gguf_kvC2IdEERKNSt3__112basic_stringIcNS1_11char_traitsIcEENS1_9allocatorIcEEEET_.cold.1, symObjAddr: 0x135F0, symBinAddr: 0x156110, symSize: 0x15 }
  - { offset: 0x28FFB2, size: 0x8, addend: 0x0, symName: __GLOBAL__sub_I_gguf.cpp, symObjAddr: 0x14680, symBinAddr: 0xB0620, symSize: 0xDE }
  - { offset: 0x291E07, size: 0x8, addend: 0x0, symName: _ggml_compute_forward_add_non_quantized, symObjAddr: 0x0, symBinAddr: 0xB0700, symSize: 0x4370 }
  - { offset: 0x294AB3, size: 0x8, addend: 0x0, symName: _ggml_compute_forward_add_non_quantized, symObjAddr: 0x0, symBinAddr: 0xB0700, symSize: 0x4370 }
  - { offset: 0x2982F7, size: 0x8, addend: 0x0, symName: _ggml_compute_forward_sub, symObjAddr: 0x4370, symBinAddr: 0xB4A70, symSize: 0x4390 }
  - { offset: 0x29BACB, size: 0x8, addend: 0x0, symName: _ggml_compute_forward_mul, symObjAddr: 0x8700, symBinAddr: 0xB8E00, symSize: 0x4370 }
  - { offset: 0x29F29F, size: 0x8, addend: 0x0, symName: _ggml_compute_forward_div, symObjAddr: 0xCA70, symBinAddr: 0xBD170, symSize: 0x4C8B }
  - { offset: 0x2A2F79, size: 0x8, addend: 0x0, symName: _ggml_get_type_traits_cpu, symObjAddr: 0x0, symBinAddr: 0xC1E00, symSize: 0x20 }
  - { offset: 0x2A2F95, size: 0x8, addend: 0x0, symName: _ggml_cpu_init, symObjAddr: 0x4500, symBinAddr: 0xC6300, symSize: 0x280 }
  - { offset: 0x2A2FB9, size: 0x8, addend: 0x0, symName: _ggml_cpu_init.is_first_call, symObjAddr: 0x22BDE, symBinAddr: 0x2048A0, symSize: 0x0 }
  - { offset: 0x2A3429, size: 0x8, addend: 0x0, symName: _ggml_table_f32_f16, symBinAddr: 0x244BE0, symSize: 0x0 }
  - { offset: 0x2A3457, size: 0x8, addend: 0x0, symName: _type_traits_cpu, symObjAddr: 0x7130, symBinAddr: 0x180700, symSize: 0x0 }
  - { offset: 0x2A4A47, size: 0x8, addend: 0x0, symName: _ggml_get_type_traits_cpu, symObjAddr: 0x0, symBinAddr: 0xC1E00, symSize: 0x20 }
  - { offset: 0x2A4A7C, size: 0x8, addend: 0x0, symName: _ggml_barrier, symObjAddr: 0x20, symBinAddr: 0xC1E20, symSize: 0x70 }
  - { offset: 0x2A4ACD, size: 0x8, addend: 0x0, symName: _ggml_threadpool_chunk_set, symObjAddr: 0x90, symBinAddr: 0xC1E90, symSize: 0x10 }
  - { offset: 0x2A4B03, size: 0x8, addend: 0x0, symName: _ggml_threadpool_chunk_add, symObjAddr: 0xA0, symBinAddr: 0xC1EA0, symSize: 0x10 }
  - { offset: 0x2A4B3F, size: 0x8, addend: 0x0, symName: _ggml_numa_init, symObjAddr: 0xB0, symBinAddr: 0xC1EB0, symSize: 0x10 }
  - { offset: 0x2A4B66, size: 0x8, addend: 0x0, symName: _ggml_is_numa, symObjAddr: 0xC0, symBinAddr: 0xC1EC0, symSize: 0x10 }
  - { offset: 0x2A4B81, size: 0x8, addend: 0x0, symName: _ggml_new_i32, symObjAddr: 0xD0, symBinAddr: 0xC1ED0, symSize: 0x60 }
  - { offset: 0x2A4C6D, size: 0x8, addend: 0x0, symName: _ggml_set_i32, symObjAddr: 0x130, symBinAddr: 0xC1F30, symSize: 0x780 }
  - { offset: 0x2A5115, size: 0x8, addend: 0x0, symName: _ggml_new_f32, symObjAddr: 0x8B0, symBinAddr: 0xC26B0, symSize: 0x60 }
  - { offset: 0x2A51C2, size: 0x8, addend: 0x0, symName: _ggml_set_f32, symObjAddr: 0x910, symBinAddr: 0xC2710, symSize: 0x7F0 }
  - { offset: 0x2A5527, size: 0x8, addend: 0x0, symName: _ggml_get_i32_1d, symObjAddr: 0x1100, symBinAddr: 0xC2F00, symSize: 0x2C0 }
  - { offset: 0x2A5711, size: 0x8, addend: 0x0, symName: _ggml_get_i32_nd, symObjAddr: 0x13C0, symBinAddr: 0xC31C0, symSize: 0x120 }
  - { offset: 0x2A5978, size: 0x8, addend: 0x0, symName: _ggml_set_i32_1d, symObjAddr: 0x14E0, symBinAddr: 0xC32E0, symSize: 0x370 }
  - { offset: 0x2A5C29, size: 0x8, addend: 0x0, symName: _ggml_set_i32_nd, symObjAddr: 0x1850, symBinAddr: 0xC3650, symSize: 0x1C0 }
  - { offset: 0x2A5DF6, size: 0x8, addend: 0x0, symName: _ggml_get_f32_1d, symObjAddr: 0x1A10, symBinAddr: 0xC3810, symSize: 0x1C0 }
  - { offset: 0x2A5F0E, size: 0x8, addend: 0x0, symName: _ggml_get_f32_nd, symObjAddr: 0x1BD0, symBinAddr: 0xC39D0, symSize: 0x120 }
  - { offset: 0x2A5FD3, size: 0x8, addend: 0x0, symName: _ggml_set_f32_1d, symObjAddr: 0x1CF0, symBinAddr: 0xC3AF0, symSize: 0x270 }
  - { offset: 0x2A61FD, size: 0x8, addend: 0x0, symName: _ggml_set_f32_nd, symObjAddr: 0x1F60, symBinAddr: 0xC3D60, symSize: 0x1C0 }
  - { offset: 0x2A67C2, size: 0x8, addend: 0x0, symName: _ggml_compute_forward_mul_mat, symObjAddr: 0x2120, symBinAddr: 0xC3F20, symSize: 0x1150 }
  - { offset: 0x2A7040, size: 0x8, addend: 0x0, symName: _ggml_threadpool_free, symObjAddr: 0x3270, symBinAddr: 0xC5070, symSize: 0x100 }
  - { offset: 0x2A7096, size: 0x8, addend: 0x0, symName: _ggml_threadpool_free, symObjAddr: 0x3270, symBinAddr: 0xC5070, symSize: 0x100 }
  - { offset: 0x2A72A1, size: 0x8, addend: 0x0, symName: _ggml_threadpool_pause, symObjAddr: 0x3370, symBinAddr: 0xC5170, symSize: 0x40 }
  - { offset: 0x2A733D, size: 0x8, addend: 0x0, symName: _ggml_threadpool_resume, symObjAddr: 0x33B0, symBinAddr: 0xC51B0, symSize: 0x40 }
  - { offset: 0x2A75D7, size: 0x8, addend: 0x0, symName: _ggml_graph_plan, symObjAddr: 0x33F0, symBinAddr: 0xC51F0, symSize: 0xA30 }
  - { offset: 0x2A7DB6, size: 0x8, addend: 0x0, symName: _ggml_threadpool_new, symObjAddr: 0x3E20, symBinAddr: 0xC5C20, symSize: 0x10 }
  - { offset: 0x2A7E04, size: 0x8, addend: 0x0, symName: _ggml_threadpool_new_impl, symObjAddr: 0x3E30, symBinAddr: 0xC5C30, symSize: 0x440 }
  - { offset: 0x2A83AD, size: 0x8, addend: 0x0, symName: _ggml_graph_compute, symObjAddr: 0x4270, symBinAddr: 0xC6070, symSize: 0x290 }
  - { offset: 0x2A86CC, size: 0x8, addend: 0x0, symName: _ggml_graph_compute_thread, symObjAddr: 0x4780, symBinAddr: 0xC6580, symSize: 0x1D70 }
  - { offset: 0x2AAB4F, size: 0x8, addend: 0x0, symName: _ggml_graph_compute_with_ctx, symObjAddr: 0x64F0, symBinAddr: 0xC82F0, symSize: 0x50 }
  - { offset: 0x2AAC28, size: 0x8, addend: 0x0, symName: _ggml_cpu_fp32_to_fp32, symObjAddr: 0x6540, symBinAddr: 0xC8340, symSize: 0x20 }
  - { offset: 0x2AAC73, size: 0x8, addend: 0x0, symName: _ggml_cpu_fp32_to_fp16, symObjAddr: 0x6560, symBinAddr: 0xC8360, symSize: 0x200 }
  - { offset: 0x2AADB4, size: 0x8, addend: 0x0, symName: _ggml_cpu_fp16_to_fp32, symObjAddr: 0x6760, symBinAddr: 0xC8560, symSize: 0xC0 }
  - { offset: 0x2AAE1E, size: 0x8, addend: 0x0, symName: _ggml_cpu_fp32_to_bf16, symObjAddr: 0x6820, symBinAddr: 0xC8620, symSize: 0x120 }
  - { offset: 0x2AAE82, size: 0x8, addend: 0x0, symName: _ggml_cpu_fp32_to_i32, symObjAddr: 0x6940, symBinAddr: 0xC8740, symSize: 0x80 }
  - { offset: 0x2AAED8, size: 0x8, addend: 0x0, symName: _ggml_cpu_bf16_to_fp32, symObjAddr: 0x69C0, symBinAddr: 0xC87C0, symSize: 0x100 }
  - { offset: 0x2AAF47, size: 0x8, addend: 0x0, symName: _ggml_cpu_has_avx, symObjAddr: 0x6AC0, symBinAddr: 0xC88C0, symSize: 0x10 }
  - { offset: 0x2AAF62, size: 0x8, addend: 0x0, symName: _ggml_cpu_has_avx_vnni, symObjAddr: 0x6AD0, symBinAddr: 0xC88D0, symSize: 0x10 }
  - { offset: 0x2AAF7D, size: 0x8, addend: 0x0, symName: _ggml_cpu_has_avx2, symObjAddr: 0x6AE0, symBinAddr: 0xC88E0, symSize: 0x10 }
  - { offset: 0x2AAF98, size: 0x8, addend: 0x0, symName: _ggml_cpu_has_avx512, symObjAddr: 0x6AF0, symBinAddr: 0xC88F0, symSize: 0x10 }
  - { offset: 0x2AAFB3, size: 0x8, addend: 0x0, symName: _ggml_cpu_has_avx512_vbmi, symObjAddr: 0x6B00, symBinAddr: 0xC8900, symSize: 0x10 }
  - { offset: 0x2AAFCE, size: 0x8, addend: 0x0, symName: _ggml_cpu_has_avx512_vnni, symObjAddr: 0x6B10, symBinAddr: 0xC8910, symSize: 0x10 }
  - { offset: 0x2AAFE9, size: 0x8, addend: 0x0, symName: _ggml_cpu_has_avx512_bf16, symObjAddr: 0x6B20, symBinAddr: 0xC8920, symSize: 0x10 }
  - { offset: 0x2AB004, size: 0x8, addend: 0x0, symName: _ggml_cpu_has_amx_int8, symObjAddr: 0x6B30, symBinAddr: 0xC8930, symSize: 0x10 }
  - { offset: 0x2AB01F, size: 0x8, addend: 0x0, symName: _ggml_cpu_has_bmi2, symObjAddr: 0x6B40, symBinAddr: 0xC8940, symSize: 0x10 }
  - { offset: 0x2AB03A, size: 0x8, addend: 0x0, symName: _ggml_cpu_has_fma, symObjAddr: 0x6B50, symBinAddr: 0xC8950, symSize: 0x10 }
  - { offset: 0x2AB055, size: 0x8, addend: 0x0, symName: _ggml_cpu_has_arm_fma, symObjAddr: 0x6B60, symBinAddr: 0xC8960, symSize: 0x10 }
  - { offset: 0x2AB070, size: 0x8, addend: 0x0, symName: _ggml_cpu_has_riscv_v, symObjAddr: 0x6B70, symBinAddr: 0xC8970, symSize: 0x10 }
  - { offset: 0x2AB08B, size: 0x8, addend: 0x0, symName: _ggml_cpu_has_f16c, symObjAddr: 0x6B80, symBinAddr: 0xC8980, symSize: 0x10 }
  - { offset: 0x2AB0A6, size: 0x8, addend: 0x0, symName: _ggml_cpu_has_fp16_va, symObjAddr: 0x6B90, symBinAddr: 0xC8990, symSize: 0x10 }
  - { offset: 0x2AB0C1, size: 0x8, addend: 0x0, symName: _ggml_cpu_has_wasm_simd, symObjAddr: 0x6BA0, symBinAddr: 0xC89A0, symSize: 0x10 }
  - { offset: 0x2AB0DC, size: 0x8, addend: 0x0, symName: _ggml_cpu_has_llamafile, symObjAddr: 0x6BB0, symBinAddr: 0xC89B0, symSize: 0x10 }
  - { offset: 0x2AB0F7, size: 0x8, addend: 0x0, symName: _ggml_cpu_has_sse3, symObjAddr: 0x6BC0, symBinAddr: 0xC89C0, symSize: 0x10 }
  - { offset: 0x2AB112, size: 0x8, addend: 0x0, symName: _ggml_cpu_has_ssse3, symObjAddr: 0x6BD0, symBinAddr: 0xC89D0, symSize: 0x10 }
  - { offset: 0x2AB12D, size: 0x8, addend: 0x0, symName: _ggml_cpu_has_vsx, symObjAddr: 0x6BE0, symBinAddr: 0xC89E0, symSize: 0x10 }
  - { offset: 0x2AB148, size: 0x8, addend: 0x0, symName: _ggml_cpu_has_vxe, symObjAddr: 0x6BF0, symBinAddr: 0xC89F0, symSize: 0x10 }
  - { offset: 0x2AB163, size: 0x8, addend: 0x0, symName: _ggml_cpu_has_neon, symObjAddr: 0x6C00, symBinAddr: 0xC8A00, symSize: 0x10 }
  - { offset: 0x2AB17E, size: 0x8, addend: 0x0, symName: _ggml_cpu_has_dotprod, symObjAddr: 0x6C10, symBinAddr: 0xC8A10, symSize: 0x10 }
  - { offset: 0x2AB199, size: 0x8, addend: 0x0, symName: _ggml_cpu_has_sve, symObjAddr: 0x6C20, symBinAddr: 0xC8A20, symSize: 0x10 }
  - { offset: 0x2AB1B4, size: 0x8, addend: 0x0, symName: _ggml_cpu_has_matmul_int8, symObjAddr: 0x6C30, symBinAddr: 0xC8A30, symSize: 0x10 }
  - { offset: 0x2AB1CF, size: 0x8, addend: 0x0, symName: _ggml_cpu_get_sve_cnt, symObjAddr: 0x6C40, symBinAddr: 0xC8A40, symSize: 0x10 }
  - { offset: 0x2AB1EA, size: 0x8, addend: 0x0, symName: _ggml_cpu_has_sme, symObjAddr: 0x6C50, symBinAddr: 0xC8A50, symSize: 0x10 }
  - { offset: 0x2AB311, size: 0x8, addend: 0x0, symName: _ggml_graph_compute_secondary_thread, symObjAddr: 0x6C60, symBinAddr: 0xC8A60, symSize: 0x29C }
  - { offset: 0x2AB67D, size: 0x8, addend: 0x0, symName: __Z39ggml_backend_cpu_get_extra_buffer_typesv, symObjAddr: 0x0, symBinAddr: 0xC8D00, symSize: 0x80 }
  - { offset: 0x2AB68B, size: 0x8, addend: 0x0, symName: __Z39ggml_backend_cpu_get_extra_buffer_typesv, symObjAddr: 0x0, symBinAddr: 0xC8D00, symSize: 0x80 }
  - { offset: 0x2AB6AB, size: 0x8, addend: 0x0, symName: __ZZ39ggml_backend_cpu_get_extra_buffer_typesvE5bufts, symObjAddr: 0x427C0, symBinAddr: 0x2048A8, symSize: 0x0 }
  - { offset: 0x2B1A4C, size: 0x8, addend: 0x0, symName: _ggml_backend_cpu_reg, symObjAddr: 0x2E0, symBinAddr: 0xC8FE0, symSize: 0x20 }
  - { offset: 0x2B1A6D, size: 0x8, addend: 0x0, symName: __ZZ20ggml_backend_cpu_regE20ggml_backend_cpu_reg, symObjAddr: 0x3E50, symBinAddr: 0x182350, symSize: 0x0 }
  - { offset: 0x2B1A91, size: 0x8, addend: 0x0, symName: __ZL18ggml_backend_cpu_i, symObjAddr: 0x3AF0, symBinAddr: 0x180C00, symSize: 0x0 }
  - { offset: 0x2B1AA4, size: 0x8, addend: 0x0, symName: __ZL31ggml_backend_cpu_reg_get_deviceP16ggml_backend_regm, symObjAddr: 0x480, symBinAddr: 0xC9180, symSize: 0xC0 }
  - { offset: 0x2B1AD0, size: 0x8, addend: 0x0, symName: __ZZL31ggml_backend_cpu_reg_get_deviceP16ggml_backend_regmE3ctx, symObjAddr: 0x427E0, symBinAddr: 0x2048C8, symSize: 0x0 }
  - { offset: 0x2B1AE7, size: 0x8, addend: 0x0, symName: __ZZL31ggml_backend_cpu_reg_get_deviceP16ggml_backend_regmE23ggml_backend_cpu_device, symObjAddr: 0x42800, symBinAddr: 0x2048E8, symSize: 0x0 }
  - { offset: 0x2B1C86, size: 0x8, addend: 0x0, symName: __ZL25ggml_backend_cpu_device_i, symObjAddr: 0x3B60, symBinAddr: 0x180C70, symSize: 0x0 }
  - { offset: 0x2B1C99, size: 0x8, addend: 0x0, symName: __ZL46ggml_backend_cpu_device_get_extra_buffers_typeP19ggml_backend_device, symObjAddr: 0x10C0, symBinAddr: 0xC9D00, symSize: 0x80 }
  - { offset: 0x2B1CC3, size: 0x8, addend: 0x0, symName: __ZZL46ggml_backend_cpu_device_get_extra_buffers_typeP19ggml_backend_deviceE11extra_bufts, symObjAddr: 0x42890, symBinAddr: 0x204978, symSize: 0x0 }
  - { offset: 0x2B1D16, size: 0x8, addend: 0x0, symName: __ZL29ggml_backend_cpu_get_featuresP16ggml_backend_reg, symObjAddr: 0x1140, symBinAddr: 0xC9D80, symSize: 0x80 }
  - { offset: 0x2B1D42, size: 0x8, addend: 0x0, symName: __ZZL29ggml_backend_cpu_get_featuresP16ggml_backend_regE8features, symObjAddr: 0x428B0, symBinAddr: 0x204998, symSize: 0x0 }
  - { offset: 0x2B1F5A, size: 0x8, addend: 0x0, symName: '__ZZL29ggml_backend_cpu_get_featuresP16ggml_backend_regENK3$_0clEv', symObjAddr: 0x13C0, symBinAddr: 0xCA000, symSize: 0x2250 }
  - { offset: 0x2B1F83, size: 0x8, addend: 0x0, symName: '__ZZZL29ggml_backend_cpu_get_featuresP16ggml_backend_regENK3$_0clEvE7sve_cnt', symObjAddr: 0x428D0, symBinAddr: 0x2049B8, symSize: 0x0 }
  - { offset: 0x2B89A8, size: 0x8, addend: 0x0, symName: '__ZZ39ggml_backend_cpu_get_extra_buffer_typesvENK3$_0clEv', symObjAddr: 0x80, symBinAddr: 0xC8D80, symSize: 0x160 }
  - { offset: 0x2B92C0, size: 0x8, addend: 0x0, symName: __ZNKSt3__16vectorIP24ggml_backend_buffer_typeNS_9allocatorIS2_EEE20__throw_length_errorB8ne190102Ev, symObjAddr: 0x6A0, symBinAddr: 0xC93A0, symSize: 0x10 }
  - { offset: 0x2B92F5, size: 0x8, addend: 0x0, symName: __ZNSt3__16vectorIP24ggml_backend_buffer_typeNS_9allocatorIS2_EEED1B8ne190102Ev, symObjAddr: 0x1E0, symBinAddr: 0xC8EE0, symSize: 0x20 }
  - { offset: 0x2B9443, size: 0x8, addend: 0x0, symName: _ggml_backend_cpu_init, symObjAddr: 0x200, symBinAddr: 0xC8F00, symSize: 0xE0 }
  - { offset: 0x2B94D1, size: 0x8, addend: 0x0, symName: _ggml_backend_is_cpu, symObjAddr: 0x300, symBinAddr: 0xC9000, symSize: 0x20 }
  - { offset: 0x2B952F, size: 0x8, addend: 0x0, symName: _ggml_backend_cpu_set_n_threads, symObjAddr: 0x320, symBinAddr: 0xC9020, symSize: 0x60 }
  - { offset: 0x2B95D5, size: 0x8, addend: 0x0, symName: _ggml_backend_cpu_set_threadpool, symObjAddr: 0x380, symBinAddr: 0xC9080, symSize: 0x70 }
  - { offset: 0x2B967D, size: 0x8, addend: 0x0, symName: _ggml_backend_cpu_set_abort_callback, symObjAddr: 0x3F0, symBinAddr: 0xC90F0, symSize: 0x70 }
  - { offset: 0x2B971F, size: 0x8, addend: 0x0, symName: __ZL29ggml_backend_cpu_reg_get_nameP16ggml_backend_reg, symObjAddr: 0x460, symBinAddr: 0xC9160, symSize: 0x10 }
  - { offset: 0x2B974B, size: 0x8, addend: 0x0, symName: __ZL37ggml_backend_cpu_reg_get_device_countP16ggml_backend_reg, symObjAddr: 0x470, symBinAddr: 0xC9170, symSize: 0x10 }
  - { offset: 0x2B9791, size: 0x8, addend: 0x0, symName: __ZN31ggml_backend_cpu_device_contextC2Ev, symObjAddr: 0x1030, symBinAddr: 0xC9C70, symSize: 0x90 }
  - { offset: 0x2B9AA1, size: 0x8, addend: 0x0, symName: __ZL31ggml_backend_cpu_reg_get_deviceP16ggml_backend_regm.cold.1, symObjAddr: 0x3640, symBinAddr: 0x156130, symSize: 0x5B }
  - { offset: 0x2B9AB9, size: 0x8, addend: 0x0, symName: __ZL33ggml_backend_cpu_get_proc_addressP16ggml_backend_regPKc, symObjAddr: 0x540, symBinAddr: 0xC9240, symSize: 0x160 }
  - { offset: 0x2B9C38, size: 0x8, addend: 0x0, symName: __ZL25ggml_backend_cpu_get_nameP12ggml_backend, symObjAddr: 0x770, symBinAddr: 0xC93B0, symSize: 0x10 }
  - { offset: 0x2B9C62, size: 0x8, addend: 0x0, symName: __ZL21ggml_backend_cpu_freeP12ggml_backend, symObjAddr: 0x780, symBinAddr: 0xC93C0, symSize: 0x40 }
  - { offset: 0x2B9C9D, size: 0x8, addend: 0x0, symName: __ZL34ggml_backend_cpu_graph_plan_createP12ggml_backendPK11ggml_cgraph, symObjAddr: 0x7C0, symBinAddr: 0xC9400, symSize: 0xB0 }
  - { offset: 0x2B9D36, size: 0x8, addend: 0x0, symName: __ZL32ggml_backend_cpu_graph_plan_freeP12ggml_backendPv, symObjAddr: 0x870, symBinAddr: 0xC94B0, symSize: 0x30 }
  - { offset: 0x2B9D7C, size: 0x8, addend: 0x0, symName: __ZL35ggml_backend_cpu_graph_plan_computeP12ggml_backendPv, symObjAddr: 0x8A0, symBinAddr: 0xC94E0, symSize: 0x10 }
  - { offset: 0x2B9DF6, size: 0x8, addend: 0x0, symName: __ZL30ggml_backend_cpu_graph_computeP12ggml_backendP11ggml_cgraph, symObjAddr: 0x8B0, symBinAddr: 0xC94F0, symSize: 0x80 }
  - { offset: 0x2B9F79, size: 0x8, addend: 0x0, symName: __ZN31ggml_backend_cpu_device_contextD1Ev, symObjAddr: 0x930, symBinAddr: 0xC9570, symSize: 0x20 }
  - { offset: 0x2BA0D1, size: 0x8, addend: 0x0, symName: __ZL32ggml_backend_cpu_device_get_nameP19ggml_backend_device, symObjAddr: 0x950, symBinAddr: 0xC9590, symSize: 0x10 }
  - { offset: 0x2BA16B, size: 0x8, addend: 0x0, symName: __ZL39ggml_backend_cpu_device_get_descriptionP19ggml_backend_device, symObjAddr: 0x960, symBinAddr: 0xC95A0, symSize: 0x20 }
  - { offset: 0x2BA23A, size: 0x8, addend: 0x0, symName: __ZL34ggml_backend_cpu_device_get_memoryP19ggml_backend_devicePmS1_, symObjAddr: 0x980, symBinAddr: 0xC95C0, symSize: 0x40 }
  - { offset: 0x2BA2BC, size: 0x8, addend: 0x0, symName: __ZL32ggml_backend_cpu_device_get_typeP19ggml_backend_device, symObjAddr: 0x9C0, symBinAddr: 0xC9600, symSize: 0x10 }
  - { offset: 0x2BA361, size: 0x8, addend: 0x0, symName: __ZL33ggml_backend_cpu_device_get_propsP19ggml_backend_deviceP22ggml_backend_dev_props, symObjAddr: 0x9D0, symBinAddr: 0xC9610, symSize: 0x70 }
  - { offset: 0x2BA51B, size: 0x8, addend: 0x0, symName: __ZL36ggml_backend_cpu_device_init_backendP19ggml_backend_devicePKc, symObjAddr: 0xA40, symBinAddr: 0xC9680, symSize: 0xE0 }
  - { offset: 0x2BA5B2, size: 0x8, addend: 0x0, symName: __ZL39ggml_backend_cpu_device_get_buffer_typeP19ggml_backend_device, symObjAddr: 0xB20, symBinAddr: 0xC9760, symSize: 0x10 }
  - { offset: 0x2BA5F9, size: 0x8, addend: 0x0, symName: __ZL44ggml_backend_cpu_device_buffer_from_host_ptrP19ggml_backend_devicePvmm, symObjAddr: 0xB30, symBinAddr: 0xC9770, symSize: 0x10 }
  - { offset: 0x2BA73A, size: 0x8, addend: 0x0, symName: __ZL35ggml_backend_cpu_device_supports_opP19ggml_backend_devicePK11ggml_tensor, symObjAddr: 0xB40, symBinAddr: 0xC9780, symSize: 0x430 }
  - { offset: 0x2BA9BD, size: 0x8, addend: 0x0, symName: __ZL37ggml_backend_cpu_device_supports_buftP19ggml_backend_deviceP24ggml_backend_buffer_type, symObjAddr: 0xF70, symBinAddr: 0xC9BB0, symSize: 0xC0 }
  - { offset: 0x2BAC5D, size: 0x8, addend: 0x0, symName: '__ZZL46ggml_backend_cpu_device_get_extra_buffers_typeP19ggml_backend_deviceENK3$_0clEv', symObjAddr: 0x11C0, symBinAddr: 0xC9E00, symSize: 0x200 }
  - { offset: 0x2BB9AB, size: 0x8, addend: 0x0, symName: __ZNKSt3__16vectorI20ggml_backend_featureNS_9allocatorIS1_EEE20__throw_length_errorB8ne190102Ev, symObjAddr: 0x3630, symBinAddr: 0xCC270, symSize: 0x10 }
  - { offset: 0x2BB9D5, size: 0x8, addend: 0x0, symName: __ZL31ggml_backend_cpu_reg_get_deviceP16ggml_backend_regm.cold.1, symObjAddr: 0x3640, symBinAddr: 0x156130, symSize: 0x5B }
  - { offset: 0x2BB9E0, size: 0x8, addend: 0x0, symName: __ZNSt3__16vectorI20ggml_backend_featureNS_9allocatorIS1_EEED1B8ne190102Ev, symObjAddr: 0x3610, symBinAddr: 0xCC250, symSize: 0x20 }
  - { offset: 0x2BDA16, size: 0x8, addend: 0x0, symName: _ggml_compute_forward_dup, symObjAddr: 0x0, symBinAddr: 0xCC280, symSize: 0x7C00 }
  - { offset: 0x2BFEBD, size: 0x8, addend: 0x0, symName: _ggml_compute_forward_dup, symObjAddr: 0x0, symBinAddr: 0xCC280, symSize: 0x7C00 }
  - { offset: 0x2C2A45, size: 0x8, addend: 0x0, symName: __ZL28ggml_compute_forward_dup_fltIffEvPK19ggml_compute_paramsP11ggml_tensor, symObjAddr: 0x9CE0, symBinAddr: 0xD5F60, symSize: 0xBC0 }
  - { offset: 0x2C3045, size: 0x8, addend: 0x0, symName: __ZL28ggml_compute_forward_dup_fltIfiEvPK19ggml_compute_paramsP11ggml_tensor, symObjAddr: 0xA8A0, symBinAddr: 0xD6B20, symSize: 0xD30 }
  - { offset: 0x2C3586, size: 0x8, addend: 0x0, symName: __ZL28ggml_compute_forward_dup_fltIftEvPK19ggml_compute_paramsP11ggml_tensor, symObjAddr: 0x7C00, symBinAddr: 0xD3E80, symSize: 0x1450 }
  - { offset: 0x2C3D83, size: 0x8, addend: 0x0, symName: __ZL28ggml_compute_forward_dup_fltIf11ggml_bf16_tEvPK19ggml_compute_paramsP11ggml_tensor, symObjAddr: 0x9050, symBinAddr: 0xD52D0, symSize: 0xC90 }
  - { offset: 0x2C430F, size: 0x8, addend: 0x0, symName: __ZL29ggml_compute_forward_dup_to_qIfEvPK19ggml_compute_paramsP11ggml_tensor, symObjAddr: 0xB5D0, symBinAddr: 0xD7850, symSize: 0x730 }
  - { offset: 0x2C49CF, size: 0x8, addend: 0x0, symName: _ggml_compute_forward_add, symObjAddr: 0xBD00, symBinAddr: 0xD7F80, symSize: 0x6D0 }
  - { offset: 0x2C50A4, size: 0x8, addend: 0x0, symName: _ggml_compute_forward_add_id, symObjAddr: 0xC3D0, symBinAddr: 0xD8650, symSize: 0x600 }
  - { offset: 0x2C572C, size: 0x8, addend: 0x0, symName: _ggml_compute_forward_add1, symObjAddr: 0xC9D0, symBinAddr: 0xD8C50, symSize: 0x9B0 }
  - { offset: 0x2C5D4B, size: 0x8, addend: 0x0, symName: __ZL35ggml_compute_forward_add1_bf16_bf16PK19ggml_compute_paramsP11ggml_tensor, symObjAddr: 0xE030, symBinAddr: 0xDA2B0, symSize: 0x540 }
  - { offset: 0x2C60E4, size: 0x8, addend: 0x0, symName: __ZL33ggml_compute_forward_add1_f16_f16PK19ggml_compute_paramsP11ggml_tensor, symObjAddr: 0xD380, symBinAddr: 0xD9600, symSize: 0x650 }
  - { offset: 0x2C657B, size: 0x8, addend: 0x0, symName: __ZL34ggml_compute_forward_add1_bf16_f32PK19ggml_compute_paramsP11ggml_tensor, symObjAddr: 0xE570, symBinAddr: 0xDA7F0, symSize: 0x530 }
  - { offset: 0x2C68FE, size: 0x8, addend: 0x0, symName: __ZL33ggml_compute_forward_add1_f16_f32PK19ggml_compute_paramsP11ggml_tensor, symObjAddr: 0xD9D0, symBinAddr: 0xD9C50, symSize: 0x660 }
  - { offset: 0x2C6F0C, size: 0x8, addend: 0x0, symName: _ggml_compute_forward_acc, symObjAddr: 0xEAA0, symBinAddr: 0xDAD20, symSize: 0x3B0 }
  - { offset: 0x2C75EB, size: 0x8, addend: 0x0, symName: _ggml_compute_forward_sum, symObjAddr: 0xEE50, symBinAddr: 0xDB0D0, symSize: 0x5D0 }
  - { offset: 0x2C7BEB, size: 0x8, addend: 0x0, symName: _ggml_compute_forward_sum_rows, symObjAddr: 0xF420, symBinAddr: 0xDB6A0, symSize: 0x2F0 }
  - { offset: 0x2C7F50, size: 0x8, addend: 0x0, symName: _ggml_compute_forward_mean, symObjAddr: 0xF710, symBinAddr: 0xDB990, symSize: 0x1C0 }
  - { offset: 0x2C81AD, size: 0x8, addend: 0x0, symName: _ggml_compute_forward_argmax, symObjAddr: 0xF8D0, symBinAddr: 0xDBB50, symSize: 0x1C0 }
  - { offset: 0x2C8550, size: 0x8, addend: 0x0, symName: _ggml_compute_forward_count_equal, symObjAddr: 0xFA90, symBinAddr: 0xDBD10, symSize: 0x500 }
  - { offset: 0x2C8BAF, size: 0x8, addend: 0x0, symName: _ggml_compute_forward_repeat, symObjAddr: 0xFF90, symBinAddr: 0xDC210, symSize: 0x13A0 }
  - { offset: 0x2C921D, size: 0x8, addend: 0x0, symName: _ggml_compute_forward_repeat_back, symObjAddr: 0x11330, symBinAddr: 0xDD5B0, symSize: 0xFC0 }
  - { offset: 0x2C9D9D, size: 0x8, addend: 0x0, symName: _ggml_compute_forward_concat, symObjAddr: 0x122F0, symBinAddr: 0xDE570, symSize: 0x2770 }
  - { offset: 0x2CA6BA, size: 0x8, addend: 0x0, symName: _ggml_compute_forward_leaky_relu, symObjAddr: 0x14A60, symBinAddr: 0xE0CE0, symSize: 0x750 }
  - { offset: 0x2CABE9, size: 0x8, addend: 0x0, symName: _ggml_compute_forward_silu_back, symObjAddr: 0x151B0, symBinAddr: 0xE1430, symSize: 0xB20 }
  - { offset: 0x2CB120, size: 0x8, addend: 0x0, symName: _ggml_compute_forward_norm, symObjAddr: 0x15CD0, symBinAddr: 0xE1F50, symSize: 0x360 }
  - { offset: 0x2CB60F, size: 0x8, addend: 0x0, symName: _ggml_compute_forward_rms_norm, symObjAddr: 0x16030, symBinAddr: 0xE22B0, symSize: 0x5C0 }
  - { offset: 0x2CBAF6, size: 0x8, addend: 0x0, symName: _ggml_compute_forward_rms_norm_back, symObjAddr: 0x165F0, symBinAddr: 0xE2870, symSize: 0x1050 }
  - { offset: 0x2CC234, size: 0x8, addend: 0x0, symName: _ggml_compute_forward_group_norm, symObjAddr: 0x17640, symBinAddr: 0xE38C0, symSize: 0x6B0 }
  - { offset: 0x2CC72B, size: 0x8, addend: 0x0, symName: _ggml_compute_forward_l2_norm, symObjAddr: 0x17CF0, symBinAddr: 0xE3F70, symSize: 0x5A0 }
  - { offset: 0x2CD174, size: 0x8, addend: 0x0, symName: _ggml_compute_forward_out_prod, symObjAddr: 0x18290, symBinAddr: 0xE4510, symSize: 0x2BC0 }
  - { offset: 0x2CDC3C, size: 0x8, addend: 0x0, symName: _ggml_compute_forward_scale, symObjAddr: 0x1AE50, symBinAddr: 0xE70D0, symSize: 0x260 }
  - { offset: 0x2CE299, size: 0x8, addend: 0x0, symName: _ggml_compute_forward_set, symObjAddr: 0x1B0B0, symBinAddr: 0xE7330, symSize: 0xD10 }
  - { offset: 0x2CE803, size: 0x8, addend: 0x0, symName: _ggml_compute_forward_cpy, symObjAddr: 0x1BDC0, symBinAddr: 0xE8040, symSize: 0x10 }
  - { offset: 0x2CE858, size: 0x8, addend: 0x0, symName: _ggml_compute_forward_cont, symObjAddr: 0x1BDD0, symBinAddr: 0xE8050, symSize: 0x10 }
  - { offset: 0x2CE8AD, size: 0x8, addend: 0x0, symName: _ggml_compute_forward_reshape, symObjAddr: 0x1BDE0, symBinAddr: 0xE8060, symSize: 0x10 }
  - { offset: 0x2CE8E3, size: 0x8, addend: 0x0, symName: _ggml_compute_forward_view, symObjAddr: 0x1BDF0, symBinAddr: 0xE8070, symSize: 0x10 }
  - { offset: 0x2CE919, size: 0x8, addend: 0x0, symName: _ggml_compute_forward_permute, symObjAddr: 0x1BE00, symBinAddr: 0xE8080, symSize: 0x10 }
  - { offset: 0x2CE94F, size: 0x8, addend: 0x0, symName: _ggml_compute_forward_transpose, symObjAddr: 0x1BE10, symBinAddr: 0xE8090, symSize: 0x10 }
  - { offset: 0x2CF20B, size: 0x8, addend: 0x0, symName: _ggml_compute_forward_get_rows, symObjAddr: 0x1BE20, symBinAddr: 0xE80A0, symSize: 0xBA0 }
  - { offset: 0x2CFD42, size: 0x8, addend: 0x0, symName: _ggml_compute_forward_set_rows, symObjAddr: 0x1C9C0, symBinAddr: 0xE8C40, symSize: 0x630 }
  - { offset: 0x2D029F, size: 0x8, addend: 0x0, symName: _ggml_compute_forward_get_rows_back, symObjAddr: 0x1CFF0, symBinAddr: 0xE9270, symSize: 0x6B0 }
  - { offset: 0x2D0517, size: 0x8, addend: 0x0, symName: _ggml_compute_forward_diag, symObjAddr: 0x1D6A0, symBinAddr: 0xE9920, symSize: 0x690 }
  - { offset: 0x2D069C, size: 0x8, addend: 0x0, symName: _ggml_compute_forward_diag, symObjAddr: 0x1D6A0, symBinAddr: 0xE9920, symSize: 0x690 }
  - { offset: 0x2D088A, size: 0x8, addend: 0x0, symName: _ggml_compute_forward_diag_mask_inf, symObjAddr: 0x1DD30, symBinAddr: 0xE9FB0, symSize: 0x40 }
  - { offset: 0x2D08FA, size: 0x8, addend: 0x0, symName: __ZL34ggml_compute_forward_diag_mask_f32PK19ggml_compute_paramsP11ggml_tensorf, symObjAddr: 0x1DD70, symBinAddr: 0xE9FF0, symSize: 0x240 }
  - { offset: 0x2D0B33, size: 0x8, addend: 0x0, symName: _ggml_compute_forward_diag_mask_zero, symObjAddr: 0x1DFB0, symBinAddr: 0xEA230, symSize: 0x40 }
  - { offset: 0x2D1DAB, size: 0x8, addend: 0x0, symName: _ggml_compute_forward_soft_max, symObjAddr: 0x1DFF0, symBinAddr: 0xEA270, symSize: 0xA60 }
  - { offset: 0x2D234A, size: 0x8, addend: 0x0, symName: _ggml_compute_forward_soft_max_ext_back, symObjAddr: 0x1EA50, symBinAddr: 0xEACD0, symSize: 0x690 }
  - { offset: 0x2D295F, size: 0x8, addend: 0x0, symName: _ggml_compute_forward_clamp, symObjAddr: 0x1F0E0, symBinAddr: 0xEB360, symSize: 0x930 }
  - { offset: 0x2D2C75, size: 0x8, addend: 0x0, symName: _ggml_compute_forward_rope, symObjAddr: 0x1FA10, symBinAddr: 0xEBC90, symSize: 0x50 }
  - { offset: 0x2D2D01, size: 0x8, addend: 0x0, symName: __ZL29ggml_compute_forward_rope_f16PK19ggml_compute_paramsP11ggml_tensorb, symObjAddr: 0x1FA60, symBinAddr: 0xEBCE0, symSize: 0x24B0 }
  - { offset: 0x2D3DED, size: 0x8, addend: 0x0, symName: __ZL29ggml_compute_forward_rope_f32PK19ggml_compute_paramsP11ggml_tensorb, symObjAddr: 0x21F10, symBinAddr: 0xEE190, symSize: 0x10D0 }
  - { offset: 0x2D4BE0, size: 0x8, addend: 0x0, symName: _ggml_compute_forward_rope_back, symObjAddr: 0x22FE0, symBinAddr: 0xEF260, symSize: 0x40 }
  - { offset: 0x2D52A4, size: 0x8, addend: 0x0, symName: _ggml_compute_forward_conv_transpose_1d, symObjAddr: 0x23020, symBinAddr: 0xEF2A0, symSize: 0x1820 }
  - { offset: 0x2D5FB9, size: 0x8, addend: 0x0, symName: _ggml_compute_forward_im2col, symObjAddr: 0x24840, symBinAddr: 0xF0AC0, symSize: 0xE10 }
  - { offset: 0x2D64B8, size: 0x8, addend: 0x0, symName: _ggml_compute_forward_im2col_back_f32, symObjAddr: 0x25650, symBinAddr: 0xF18D0, symSize: 0xA70 }
  - { offset: 0x2D708F, size: 0x8, addend: 0x0, symName: _ggml_compute_forward_im2col_3d, symObjAddr: 0x260C0, symBinAddr: 0xF2340, symSize: 0x1330 }
  - { offset: 0x2D7AE4, size: 0x8, addend: 0x0, symName: _ggml_compute_forward_conv_2d, symObjAddr: 0x273F0, symBinAddr: 0xF3670, symSize: 0x10B0 }
  - { offset: 0x2D84FE, size: 0x8, addend: 0x0, symName: _ggml_compute_forward_conv_3d, symObjAddr: 0x284A0, symBinAddr: 0xF4720, symSize: 0x1680 }
  - { offset: 0x2D8ADD, size: 0x8, addend: 0x0, symName: _ggml_compute_forward_conv_transpose_2d, symObjAddr: 0x29B20, symBinAddr: 0xF5DA0, symSize: 0x1640 }
  - { offset: 0x2D9501, size: 0x8, addend: 0x0, symName: _ggml_compute_forward_conv_2d_dw, symObjAddr: 0x2B160, symBinAddr: 0xF73E0, symSize: 0xCF0 }
  - { offset: 0x2D99BC, size: 0x8, addend: 0x0, symName: _ggml_compute_forward_pool_1d, symObjAddr: 0x2BE50, symBinAddr: 0xF80D0, symSize: 0x5E0 }
  - { offset: 0x2D9B41, size: 0x8, addend: 0x0, symName: _ggml_compute_forward_pool_2d, symObjAddr: 0x2C430, symBinAddr: 0xF86B0, symSize: 0x930 }
  - { offset: 0x2D9DFD, size: 0x8, addend: 0x0, symName: _ggml_compute_forward_pool_2d_back, symObjAddr: 0x2CD60, symBinAddr: 0xF8FE0, symSize: 0x660 }
  - { offset: 0x2DA68F, size: 0x8, addend: 0x0, symName: _ggml_compute_forward_upscale, symObjAddr: 0x2D3C0, symBinAddr: 0xF9640, symSize: 0x7E0 }
  - { offset: 0x2DAD3C, size: 0x8, addend: 0x0, symName: _ggml_compute_forward_pad, symObjAddr: 0x2DBA0, symBinAddr: 0xF9E20, symSize: 0x580 }
  - { offset: 0x2DAEAE, size: 0x8, addend: 0x0, symName: _ggml_compute_forward_pad_reflect_1d, symObjAddr: 0x2E120, symBinAddr: 0xFA3A0, symSize: 0x2160 }
  - { offset: 0x2DB395, size: 0x8, addend: 0x0, symName: _ggml_compute_forward_roll, symObjAddr: 0x30280, symBinAddr: 0xFC500, symSize: 0x650 }
  - { offset: 0x2DB75E, size: 0x8, addend: 0x0, symName: _ggml_compute_forward_arange, symObjAddr: 0x308D0, symBinAddr: 0xFCB50, symSize: 0x260 }
  - { offset: 0x2DBA3F, size: 0x8, addend: 0x0, symName: _ggml_compute_forward_timestep_embedding, symObjAddr: 0x30B30, symBinAddr: 0xFCDB0, symSize: 0xA90 }
  - { offset: 0x2DBD30, size: 0x8, addend: 0x0, symName: _ggml_compute_forward_argsort, symObjAddr: 0x315C0, symBinAddr: 0xFD840, symSize: 0x790 }
  - { offset: 0x2DC566, size: 0x8, addend: 0x0, symName: _ggml_compute_forward_flash_attn_ext, symObjAddr: 0x31D50, symBinAddr: 0xFDFD0, symSize: 0x1E10 }
  - { offset: 0x2DD866, size: 0x8, addend: 0x0, symName: _ggml_compute_forward_flash_attn_back, symObjAddr: 0x33B60, symBinAddr: 0xFFDE0, symSize: 0x19C0 }
  - { offset: 0x2DE576, size: 0x8, addend: 0x0, symName: _ggml_compute_forward_ssm_conv, symObjAddr: 0x35520, symBinAddr: 0x1017A0, symSize: 0x500 }
  - { offset: 0x2DEB30, size: 0x8, addend: 0x0, symName: _ggml_compute_forward_ssm_scan, symObjAddr: 0x35A20, symBinAddr: 0x101CA0, symSize: 0x10D0 }
  - { offset: 0x2DF168, size: 0x8, addend: 0x0, symName: _ggml_compute_forward_win_part, symObjAddr: 0x36AF0, symBinAddr: 0x102D70, symSize: 0x9A0 }
  - { offset: 0x2DF3F1, size: 0x8, addend: 0x0, symName: _ggml_compute_forward_win_unpart, symObjAddr: 0x37490, symBinAddr: 0x103710, symSize: 0x4A0 }
  - { offset: 0x2DFD87, size: 0x8, addend: 0x0, symName: _ggml_compute_forward_unary, symObjAddr: 0x37930, symBinAddr: 0x103BB0, symSize: 0x1140 }
  - { offset: 0x2E1D3B, size: 0x8, addend: 0x0, symName: _ggml_compute_forward_glu, symObjAddr: 0x38A70, symBinAddr: 0x104CF0, symSize: 0x2B40 }
  - { offset: 0x2E3E25, size: 0x8, addend: 0x0, symName: _ggml_compute_forward_get_rel_pos, symObjAddr: 0x3B5B0, symBinAddr: 0x107830, symSize: 0x5B0 }
  - { offset: 0x2E40EC, size: 0x8, addend: 0x0, symName: _ggml_compute_forward_add_rel_pos, symObjAddr: 0x3BB60, symBinAddr: 0x107DE0, symSize: 0x3F0 }
  - { offset: 0x2E42DA, size: 0x8, addend: 0x0, symName: _ggml_compute_forward_rwkv_wkv6, symObjAddr: 0x3BF50, symBinAddr: 0x1081D0, symSize: 0xBC0 }
  - { offset: 0x2E455C, size: 0x8, addend: 0x0, symName: _ggml_compute_forward_rwkv_wkv6, symObjAddr: 0x3BF50, symBinAddr: 0x1081D0, symSize: 0xBC0 }
  - { offset: 0x2E49F8, size: 0x8, addend: 0x0, symName: _ggml_compute_forward_gla, symObjAddr: 0x3CB10, symBinAddr: 0x108D90, symSize: 0xAF0 }
  - { offset: 0x2E5021, size: 0x8, addend: 0x0, symName: _ggml_compute_forward_rwkv_wkv7, symObjAddr: 0x3D600, symBinAddr: 0x109880, symSize: 0x790 }
  - { offset: 0x2E539D, size: 0x8, addend: 0x0, symName: _ggml_compute_forward_map_custom1, symObjAddr: 0x3DD90, symBinAddr: 0x10A010, symSize: 0x30 }
  - { offset: 0x2E540E, size: 0x8, addend: 0x0, symName: _ggml_compute_forward_map_custom2, symObjAddr: 0x3DDC0, symBinAddr: 0x10A040, symSize: 0x30 }
  - { offset: 0x2E5490, size: 0x8, addend: 0x0, symName: _ggml_compute_forward_map_custom3, symObjAddr: 0x3DDF0, symBinAddr: 0x10A070, symSize: 0x40 }
  - { offset: 0x2E5523, size: 0x8, addend: 0x0, symName: _ggml_compute_forward_custom, symObjAddr: 0x3DE30, symBinAddr: 0x10A0B0, symSize: 0x20 }
  - { offset: 0x2E56F8, size: 0x8, addend: 0x0, symName: _ggml_compute_forward_cross_entropy_loss, symObjAddr: 0x3DE50, symBinAddr: 0x10A0D0, symSize: 0x630 }
  - { offset: 0x2E5B5A, size: 0x8, addend: 0x0, symName: _ggml_compute_forward_cross_entropy_loss_back, symObjAddr: 0x3E480, symBinAddr: 0x10A700, symSize: 0x590 }
  - { offset: 0x2E5CE2, size: 0x8, addend: 0x0, symName: _ggml_compute_forward_cross_entropy_loss_back, symObjAddr: 0x3E480, symBinAddr: 0x10A700, symSize: 0x590 }
  - { offset: 0x2E642E, size: 0x8, addend: 0x0, symName: _ggml_compute_forward_opt_step_adamw, symObjAddr: 0x3EA10, symBinAddr: 0x10AC90, symSize: 0x640 }
  - { offset: 0x2E6978, size: 0x8, addend: 0x0, symName: _ggml_compute_forward_opt_step_sgd, symObjAddr: 0x3F050, symBinAddr: 0x10B2D0, symSize: 0x68B }
  - { offset: 0x2E8BFB, size: 0x8, addend: 0x0, symName: _quantize_row_q4_0, symObjAddr: 0x0, symBinAddr: 0x10B960, symSize: 0x10 }
  - { offset: 0x2E8C09, size: 0x8, addend: 0x0, symName: _ggml_vec_dot_q4_K_q8_K, symObjAddr: 0x43D0, symBinAddr: 0x10FD30, symSize: 0x600 }
  - { offset: 0x2E8FF9, size: 0x8, addend: 0x0, symName: _ggml_vec_dot_q5_K_q8_K, symObjAddr: 0x49D0, symBinAddr: 0x110330, symSize: 0x7A0 }
  - { offset: 0x2E942F, size: 0x8, addend: 0x0, symName: _kvalues_mxfp4, symObjAddr: 0x8EA0, symBinAddr: 0x163430, symSize: 0x0 }
  - { offset: 0x2E9474, size: 0x8, addend: 0x0, symName: _iq2xxs_grid, symObjAddr: 0x8EB0, symBinAddr: 0x163440, symSize: 0x0 }
  - { offset: 0x2E94B3, size: 0x8, addend: 0x0, symName: _ksigns_iq2xs, symObjAddr: 0x96B0, symBinAddr: 0x163C40, symSize: 0x0 }
  - { offset: 0x2E94F1, size: 0x8, addend: 0x0, symName: _iq2xs_grid, symObjAddr: 0x9730, symBinAddr: 0x163CC0, symSize: 0x0 }
  - { offset: 0x2E9517, size: 0x8, addend: 0x0, symName: _iq2s_grid, symObjAddr: 0xA730, symBinAddr: 0x164CC0, symSize: 0x0 }
  - { offset: 0x2E953D, size: 0x8, addend: 0x0, symName: _iq3xxs_grid, symObjAddr: 0xC730, symBinAddr: 0x166CC0, symSize: 0x0 }
  - { offset: 0x2E9563, size: 0x8, addend: 0x0, symName: _iq3s_grid, symObjAddr: 0xCB30, symBinAddr: 0x1670C0, symSize: 0x0 }
  - { offset: 0x2E9589, size: 0x8, addend: 0x0, symName: _iq1s_grid, symObjAddr: 0xD330, symBinAddr: 0x1678C0, symSize: 0x0 }
  - { offset: 0x2E95AF, size: 0x8, addend: 0x0, symName: _kvalues_iq4nl, symObjAddr: 0x11330, symBinAddr: 0x16B8C0, symSize: 0x0 }
  - { offset: 0x2E95EB, size: 0x8, addend: 0x0, symName: _quantize_row_q4_0, symObjAddr: 0x0, symBinAddr: 0x10B960, symSize: 0x10 }
  - { offset: 0x2E96E5, size: 0x8, addend: 0x0, symName: _quantize_row_q4_1, symObjAddr: 0x10, symBinAddr: 0x10B970, symSize: 0x10 }
  - { offset: 0x2E97E4, size: 0x8, addend: 0x0, symName: _quantize_row_q5_0, symObjAddr: 0x20, symBinAddr: 0x10B980, symSize: 0x10 }
  - { offset: 0x2E98BA, size: 0x8, addend: 0x0, symName: _quantize_row_q5_1, symObjAddr: 0x30, symBinAddr: 0x10B990, symSize: 0x10 }
  - { offset: 0x2E99BA, size: 0x8, addend: 0x0, symName: _quantize_row_q8_0, symObjAddr: 0x40, symBinAddr: 0x10B9A0, symSize: 0x10 }
  - { offset: 0x2E9A83, size: 0x8, addend: 0x0, symName: _quantize_row_q8_1, symObjAddr: 0x50, symBinAddr: 0x10B9B0, symSize: 0x10 }
  - { offset: 0x2E9B76, size: 0x8, addend: 0x0, symName: _quantize_row_mxfp4, symObjAddr: 0x60, symBinAddr: 0x10B9C0, symSize: 0x10 }
  - { offset: 0x2E9C31, size: 0x8, addend: 0x0, symName: _quantize_row_q2_K, symObjAddr: 0x70, symBinAddr: 0x10B9D0, symSize: 0x10 }
  - { offset: 0x2E9D4A, size: 0x8, addend: 0x0, symName: _quantize_row_q3_K, symObjAddr: 0x80, symBinAddr: 0x10B9E0, symSize: 0x10 }
  - { offset: 0x2E9E41, size: 0x8, addend: 0x0, symName: _quantize_row_q4_K, symObjAddr: 0x90, symBinAddr: 0x10B9F0, symSize: 0x10 }
  - { offset: 0x2E9F68, size: 0x8, addend: 0x0, symName: _quantize_row_q5_K, symObjAddr: 0xA0, symBinAddr: 0x10BA00, symSize: 0x10 }
  - { offset: 0x2EA08F, size: 0x8, addend: 0x0, symName: _quantize_row_q6_K, symObjAddr: 0xB0, symBinAddr: 0x10BA10, symSize: 0x10 }
  - { offset: 0x2EA186, size: 0x8, addend: 0x0, symName: _quantize_row_tq1_0, symObjAddr: 0xC0, symBinAddr: 0x10BA20, symSize: 0x10 }
  - { offset: 0x2EA26A, size: 0x8, addend: 0x0, symName: _quantize_row_tq2_0, symObjAddr: 0xD0, symBinAddr: 0x10BA30, symSize: 0x10 }
  - { offset: 0x2EA333, size: 0x8, addend: 0x0, symName: _quantize_row_q8_K, symObjAddr: 0xE0, symBinAddr: 0x10BA40, symSize: 0x10 }
  - { offset: 0x2EA432, size: 0x8, addend: 0x0, symName: _ggml_vec_dot_q4_0_q8_0, symObjAddr: 0xF0, symBinAddr: 0x10BA50, symSize: 0x190 }
  - { offset: 0x2EA5CC, size: 0x8, addend: 0x0, symName: _ggml_vec_dot_q4_1_q8_1, symObjAddr: 0x280, symBinAddr: 0x10BBE0, symSize: 0x190 }
  - { offset: 0x2EA793, size: 0x8, addend: 0x0, symName: _ggml_vec_dot_mxfp4_q8_0, symObjAddr: 0x410, symBinAddr: 0x10BD70, symSize: 0x3E0 }
  - { offset: 0x2EA8F2, size: 0x8, addend: 0x0, symName: _ggml_vec_dot_q5_0_q8_0, symObjAddr: 0x7F0, symBinAddr: 0x10C150, symSize: 0x480 }
  - { offset: 0x2EAA86, size: 0x8, addend: 0x0, symName: _ggml_vec_dot_q5_1_q8_1, symObjAddr: 0xC70, symBinAddr: 0x10C5D0, symSize: 0x430 }
  - { offset: 0x2EAC50, size: 0x8, addend: 0x0, symName: _ggml_vec_dot_q8_0_q8_0, symObjAddr: 0x10A0, symBinAddr: 0x10CA00, symSize: 0x100 }
  - { offset: 0x2EAD9B, size: 0x8, addend: 0x0, symName: _ggml_vec_dot_tq1_0_q8_K, symObjAddr: 0x11A0, symBinAddr: 0x10CB00, symSize: 0x1370 }
  - { offset: 0x2EAFED, size: 0x8, addend: 0x0, symName: _ggml_vec_dot_tq2_0_q8_K, symObjAddr: 0x2510, symBinAddr: 0x10DE70, symSize: 0x11C0 }
  - { offset: 0x2EB171, size: 0x8, addend: 0x0, symName: _ggml_vec_dot_q2_K_q8_K, symObjAddr: 0x36D0, symBinAddr: 0x10F030, symSize: 0x660 }
  - { offset: 0x2EB3EF, size: 0x8, addend: 0x0, symName: _ggml_vec_dot_q3_K_q8_K, symObjAddr: 0x3D30, symBinAddr: 0x10F690, symSize: 0x6A0 }
  - { offset: 0x2EB789, size: 0x8, addend: 0x0, symName: _ggml_vec_dot_q6_K_q8_K, symObjAddr: 0x5170, symBinAddr: 0x110AD0, symSize: 0x4F0 }
  - { offset: 0x2EBA52, size: 0x8, addend: 0x0, symName: _ggml_vec_dot_iq2_xxs_q8_K, symObjAddr: 0x5660, symBinAddr: 0x110FC0, symSize: 0x530 }
  - { offset: 0x2EBC8F, size: 0x8, addend: 0x0, symName: _ggml_vec_dot_iq2_xs_q8_K, symObjAddr: 0x5B90, symBinAddr: 0x1114F0, symSize: 0x520 }
  - { offset: 0x2EBF0B, size: 0x8, addend: 0x0, symName: _ggml_vec_dot_iq2_s_q8_K, symObjAddr: 0x60B0, symBinAddr: 0x111A10, symSize: 0x6C0 }
  - { offset: 0x2EC18B, size: 0x8, addend: 0x0, symName: _ggml_vec_dot_iq3_xxs_q8_K, symObjAddr: 0x6770, symBinAddr: 0x1120D0, symSize: 0x560 }
  - { offset: 0x2EC3C5, size: 0x8, addend: 0x0, symName: _ggml_vec_dot_iq3_s_q8_K, symObjAddr: 0x6CD0, symBinAddr: 0x112630, symSize: 0x9C0 }
  - { offset: 0x2EC64E, size: 0x8, addend: 0x0, symName: _ggml_vec_dot_iq1_s_q8_K, symObjAddr: 0x7690, symBinAddr: 0x112FF0, symSize: 0x230 }
  - { offset: 0x2EC874, size: 0x8, addend: 0x0, symName: _ggml_vec_dot_iq1_m_q8_K, symObjAddr: 0x78C0, symBinAddr: 0x113220, symSize: 0x4E0 }
  - { offset: 0x2ECAEC, size: 0x8, addend: 0x0, symName: _ggml_vec_dot_iq4_nl_q8_0, symObjAddr: 0x7DA0, symBinAddr: 0x113700, symSize: 0x3C0 }
  - { offset: 0x2ECC53, size: 0x8, addend: 0x0, symName: _ggml_vec_dot_iq4_xs_q8_K, symObjAddr: 0x8160, symBinAddr: 0x113AC0, symSize: 0x970 }
  - { offset: 0x2ECE73, size: 0x8, addend: 0x0, symName: _quantize_row_iq4_nl, symObjAddr: 0x8AD0, symBinAddr: 0x114430, symSize: 0x10 }
  - { offset: 0x2ECF36, size: 0x8, addend: 0x0, symName: _quantize_row_iq4_xs, symObjAddr: 0x8AE0, symBinAddr: 0x114440, symSize: 0x15 }
  - { offset: 0x2ED507, size: 0x8, addend: 0x0, symName: _ggml_quantize_mat_q8_0_4x4, symObjAddr: 0x0, symBinAddr: 0x114460, symSize: 0x430 }
  - { offset: 0x2ED515, size: 0x8, addend: 0x0, symName: _ggml_gemv_q4_K_8x8_q8_K, symObjAddr: 0x2330, symBinAddr: 0x116790, symSize: 0x13C0 }
  - { offset: 0x2ED84B, size: 0x8, addend: 0x0, symName: _ggml_gemm_q4_K_8x8_q8_K, symObjAddr: 0x7760, symBinAddr: 0x11BBC0, symSize: 0x1780 }
  - { offset: 0x2EDC11, size: 0x8, addend: 0x0, symName: __Z35ggml_backend_cpu_repack_buffer_typev, symObjAddr: 0xE3B0, symBinAddr: 0x122810, symSize: 0xD0 }
  - { offset: 0x2EDC3D, size: 0x8, addend: 0x0, symName: __ZZ35ggml_backend_cpu_repack_buffer_typevE35ggml_backend_cpu_buffer_type_repack, symObjAddr: 0x55F08, symBinAddr: 0x2049D8, symSize: 0x0 }
  - { offset: 0x2EDD1B, size: 0x8, addend: 0x0, symName: __ZL13kvalues_iq4nl, symObjAddr: 0x161A0, symBinAddr: 0x16BA50, symSize: 0x0 }
  - { offset: 0x2EDD43, size: 0x8, addend: 0x0, symName: __ZL35ggml_repack_get_optimal_repack_typePK11ggml_tensor, symObjAddr: 0xE5D0, symBinAddr: 0x122A30, symSize: 0x270 }
  - { offset: 0x2EDD6F, size: 0x8, addend: 0x0, symName: __ZZL35ggml_repack_get_optimal_repack_typePK11ggml_tensorE13q4_0_4x4_q8_0, symObjAddr: 0x16788, symBinAddr: 0x182390, symSize: 0x0 }
  - { offset: 0x2EDD86, size: 0x8, addend: 0x0, symName: __ZZL35ggml_repack_get_optimal_repack_typePK11ggml_tensorE13q4_0_4x8_q8_0, symObjAddr: 0x16790, symBinAddr: 0x182398, symSize: 0x0 }
  - { offset: 0x2EDD9D, size: 0x8, addend: 0x0, symName: __ZZL35ggml_repack_get_optimal_repack_typePK11ggml_tensorE13q4_0_8x8_q8_0, symObjAddr: 0x16798, symBinAddr: 0x1823A0, symSize: 0x0 }
  - { offset: 0x2EDDB4, size: 0x8, addend: 0x0, symName: __ZZL35ggml_repack_get_optimal_repack_typePK11ggml_tensorE13q4_K_8x8_q8_K, symObjAddr: 0x167A0, symBinAddr: 0x1823A8, symSize: 0x0 }
  - { offset: 0x2EDDCB, size: 0x8, addend: 0x0, symName: __ZZL35ggml_repack_get_optimal_repack_typePK11ggml_tensorE13q2_K_8x8_q8_K, symObjAddr: 0x167A8, symBinAddr: 0x1823B0, symSize: 0x0 }
  - { offset: 0x2EDDE2, size: 0x8, addend: 0x0, symName: __ZZL35ggml_repack_get_optimal_repack_typePK11ggml_tensorE15iq4_nl_4x4_q8_0, symObjAddr: 0x167B0, symBinAddr: 0x1823B8, symSize: 0x0 }
  - { offset: 0x2EDDF9, size: 0x8, addend: 0x0, symName: __ZZL35ggml_repack_get_optimal_repack_typePK11ggml_tensorE15iq4_nl_8x8_q8_0, symObjAddr: 0x167B8, symBinAddr: 0x1823C0, symSize: 0x0 }
  - { offset: 0x2EE6FB, size: 0x8, addend: 0x0, symName: __ZN4ggml3cpu6repack6repackI10block_q4_0Lx4ELx4EEEiP11ggml_tensorPKvm, symObjAddr: 0xBFE0, symBinAddr: 0x120440, symSize: 0x20 }
  - { offset: 0x2EE759, size: 0x8, addend: 0x0, symName: __ZN4ggml3cpu6repack6repackI10block_q4_0Lx8ELx4EEEiP11ggml_tensorPKvm, symObjAddr: 0xC480, symBinAddr: 0x1208E0, symSize: 0x20 }
  - { offset: 0x2EE7B7, size: 0x8, addend: 0x0, symName: __ZN4ggml3cpu6repack6repackI10block_q4_0Lx8ELx8EEEiP11ggml_tensorPKvm, symObjAddr: 0xC4A0, symBinAddr: 0x120900, symSize: 0x410 }
  - { offset: 0x2EE954, size: 0x8, addend: 0x0, symName: __ZN4ggml3cpu6repack6repackI10block_q4_KLx8ELx8EEEiP11ggml_tensorPKvm, symObjAddr: 0xC8B0, symBinAddr: 0x120D10, symSize: 0xD90 }
  - { offset: 0x2EEBB7, size: 0x8, addend: 0x0, symName: __ZN4ggml3cpu6repack6repackI10block_q2_KLx8ELx8EEEiP11ggml_tensorPKvm, symObjAddr: 0xD640, symBinAddr: 0x121AA0, symSize: 0x600 }
  - { offset: 0x2EEDFC, size: 0x8, addend: 0x0, symName: __ZN4ggml3cpu6repack6repackI12block_iq4_nlLx4ELx4EEEiP11ggml_tensorPKvm, symObjAddr: 0xDC40, symBinAddr: 0x1220A0, symSize: 0x2C0 }
  - { offset: 0x2EEF39, size: 0x8, addend: 0x0, symName: __ZN4ggml3cpu6repack6repackI12block_iq4_nlLx8ELx8EEEiP11ggml_tensorPKvm, symObjAddr: 0xDF00, symBinAddr: 0x122360, symSize: 0x3D0 }
  - { offset: 0x2EF076, size: 0x8, addend: 0x0, symName: __ZN4ggml3cpu6repack4gemvI10block_q4_0Lx4ELx4EL9ggml_type8EEEviPfmPKvS7_ii, symObjAddr: 0xE2D0, symBinAddr: 0x122730, symSize: 0x10 }
  - { offset: 0x2EF0F3, size: 0x8, addend: 0x0, symName: __ZN4ggml3cpu6repack4gemvI10block_q4_0Lx8ELx4EL9ggml_type8EEEviPfmPKvS7_ii, symObjAddr: 0xE2E0, symBinAddr: 0x122740, symSize: 0x10 }
  - { offset: 0x2EF170, size: 0x8, addend: 0x0, symName: __ZN4ggml3cpu6repack4gemvI10block_q4_0Lx8ELx8EL9ggml_type8EEEviPfmPKvS7_ii, symObjAddr: 0xE2F0, symBinAddr: 0x122750, symSize: 0x10 }
  - { offset: 0x2EF1ED, size: 0x8, addend: 0x0, symName: __ZN4ggml3cpu6repack4gemvI10block_q4_KLx8ELx8EL9ggml_type15EEEviPfmPKvS7_ii, symObjAddr: 0xE300, symBinAddr: 0x122760, symSize: 0x10 }
  - { offset: 0x2EF26A, size: 0x8, addend: 0x0, symName: __ZN4ggml3cpu6repack4gemvI10block_q2_KLx8ELx8EL9ggml_type15EEEviPfmPKvS7_ii, symObjAddr: 0xE310, symBinAddr: 0x122770, symSize: 0x10 }
  - { offset: 0x2EF2E7, size: 0x8, addend: 0x0, symName: __ZN4ggml3cpu6repack4gemvI12block_iq4_nlLx4ELx4EL9ggml_type8EEEviPfmPKvS7_ii, symObjAddr: 0xE320, symBinAddr: 0x122780, symSize: 0x10 }
  - { offset: 0x2EF364, size: 0x8, addend: 0x0, symName: __ZN4ggml3cpu6repack4gemvI12block_iq4_nlLx8ELx8EL9ggml_type8EEEviPfmPKvS7_ii, symObjAddr: 0xE330, symBinAddr: 0x122790, symSize: 0x10 }
  - { offset: 0x2EF3E1, size: 0x8, addend: 0x0, symName: __ZN4ggml3cpu6repack4gemmI10block_q4_0Lx4ELx4EL9ggml_type8EEEviPfmPKvS7_ii, symObjAddr: 0xE340, symBinAddr: 0x1227A0, symSize: 0x10 }
  - { offset: 0x2EF46E, size: 0x8, addend: 0x0, symName: __ZN4ggml3cpu6repack4gemmI10block_q4_0Lx8ELx4EL9ggml_type8EEEviPfmPKvS7_ii, symObjAddr: 0xE350, symBinAddr: 0x1227B0, symSize: 0x10 }
  - { offset: 0x2EF4FB, size: 0x8, addend: 0x0, symName: __ZN4ggml3cpu6repack4gemmI10block_q4_0Lx8ELx8EL9ggml_type8EEEviPfmPKvS7_ii, symObjAddr: 0xE360, symBinAddr: 0x1227C0, symSize: 0x10 }
  - { offset: 0x2EF588, size: 0x8, addend: 0x0, symName: __ZN4ggml3cpu6repack4gemmI10block_q4_KLx8ELx8EL9ggml_type15EEEviPfmPKvS7_ii, symObjAddr: 0xE370, symBinAddr: 0x1227D0, symSize: 0x10 }
  - { offset: 0x2EF615, size: 0x8, addend: 0x0, symName: __ZN4ggml3cpu6repack4gemmI10block_q2_KLx8ELx8EL9ggml_type15EEEviPfmPKvS7_ii, symObjAddr: 0xE380, symBinAddr: 0x1227E0, symSize: 0x10 }
  - { offset: 0x2EF6A2, size: 0x8, addend: 0x0, symName: __ZN4ggml3cpu6repack4gemmI12block_iq4_nlLx4ELx4EL9ggml_type8EEEviPfmPKvS7_ii, symObjAddr: 0xE390, symBinAddr: 0x1227F0, symSize: 0x10 }
  - { offset: 0x2EF72F, size: 0x8, addend: 0x0, symName: __ZN4ggml3cpu6repack4gemmI12block_iq4_nlLx8ELx8EL9ggml_type8EEEviPfmPKvS7_ii, symObjAddr: 0xE3A0, symBinAddr: 0x122800, symSize: 0x10 }
  - { offset: 0x2F0688, size: 0x8, addend: 0x0, symName: __ZN4ggml3cpu6repack13tensor_traitsI10block_q4_0Lx4ELx4EL9ggml_type8EE18forward_mul_mat_idEP19ggml_compute_paramsP11ggml_tensor, symObjAddr: 0xF7A0, symBinAddr: 0x123C00, symSize: 0x820 }
  - { offset: 0x2F0D16, size: 0x8, addend: 0x0, symName: __ZN4ggml3cpu6repack13tensor_traitsI10block_q4_0Lx8ELx4EL9ggml_type8EE18forward_mul_mat_idEP19ggml_compute_paramsP11ggml_tensor, symObjAddr: 0x10560, symBinAddr: 0x1249C0, symSize: 0x820 }
  - { offset: 0x2F139F, size: 0x8, addend: 0x0, symName: __ZN4ggml3cpu6repack13tensor_traitsI10block_q4_0Lx8ELx8EL9ggml_type8EE18forward_mul_mat_idEP19ggml_compute_paramsP11ggml_tensor, symObjAddr: 0x11320, symBinAddr: 0x125780, symSize: 0x820 }
  - { offset: 0x2F1A28, size: 0x8, addend: 0x0, symName: __ZN4ggml3cpu6repack13tensor_traitsI10block_q4_KLx8ELx8EL9ggml_type15EE18forward_mul_mat_idEP19ggml_compute_paramsP11ggml_tensor, symObjAddr: 0x120E0, symBinAddr: 0x126540, symSize: 0x820 }
  - { offset: 0x2F20B1, size: 0x8, addend: 0x0, symName: __ZN4ggml3cpu6repack13tensor_traitsI10block_q2_KLx8ELx8EL9ggml_type15EE18forward_mul_mat_idEP19ggml_compute_paramsP11ggml_tensor, symObjAddr: 0x12EA0, symBinAddr: 0x127300, symSize: 0x820 }
  - { offset: 0x2F273A, size: 0x8, addend: 0x0, symName: __ZN4ggml3cpu6repack13tensor_traitsI12block_iq4_nlLx4ELx4EL9ggml_type8EE18forward_mul_mat_idEP19ggml_compute_paramsP11ggml_tensor, symObjAddr: 0x13C60, symBinAddr: 0x1280C0, symSize: 0x820 }
  - { offset: 0x2F2DC3, size: 0x8, addend: 0x0, symName: __ZN4ggml3cpu6repack13tensor_traitsI12block_iq4_nlLx8ELx8EL9ggml_type8EE18forward_mul_mat_idEP19ggml_compute_paramsP11ggml_tensor, symObjAddr: 0x14A20, symBinAddr: 0x128E80, symSize: 0x820 }
  - { offset: 0x2F359B, size: 0x8, addend: 0x0, symName: _ggml_quantize_mat_q8_0_4x4, symObjAddr: 0x0, symBinAddr: 0x114460, symSize: 0x430 }
  - { offset: 0x2F380F, size: 0x8, addend: 0x0, symName: _ggml_quantize_mat_q8_0_4x8, symObjAddr: 0x430, symBinAddr: 0x114890, symSize: 0x430 }
  - { offset: 0x2F3AB8, size: 0x8, addend: 0x0, symName: _ggml_quantize_mat_q8_K_4x8, symObjAddr: 0x860, symBinAddr: 0x114CC0, symSize: 0x560 }
  - { offset: 0x2F3C84, size: 0x8, addend: 0x0, symName: __Z19ggml_quantize_mat_tILx4EL9ggml_type8EEvPKfPvxx, symObjAddr: 0xDC0, symBinAddr: 0x115220, symSize: 0x10 }
  - { offset: 0x2F3CE4, size: 0x8, addend: 0x0, symName: __Z19ggml_quantize_mat_tILx8EL9ggml_type8EEvPKfPvxx, symObjAddr: 0xDD0, symBinAddr: 0x115230, symSize: 0x10 }
  - { offset: 0x2F3D44, size: 0x8, addend: 0x0, symName: __Z19ggml_quantize_mat_tILx8EL9ggml_type15EEvPKfPvxx, symObjAddr: 0xDE0, symBinAddr: 0x115240, symSize: 0x10 }
  - { offset: 0x2F3DA4, size: 0x8, addend: 0x0, symName: _ggml_gemv_q4_0_4x4_q8_0, symObjAddr: 0xDF0, symBinAddr: 0x115250, symSize: 0x4A0 }
  - { offset: 0x2F3F75, size: 0x8, addend: 0x0, symName: _ggml_gemv_q4_0_4x8_q8_0, symObjAddr: 0x1290, symBinAddr: 0x1156F0, symSize: 0x6A0 }
  - { offset: 0x2F4105, size: 0x8, addend: 0x0, symName: _ggml_gemv_q4_0_8x8_q8_0, symObjAddr: 0x1930, symBinAddr: 0x115D90, symSize: 0xA00 }
  - { offset: 0x2F43B3, size: 0x8, addend: 0x0, symName: _ggml_gemv_q2_K_8x8_q8_K, symObjAddr: 0x36F0, symBinAddr: 0x117B50, symSize: 0x17C0 }
  - { offset: 0x2F46DE, size: 0x8, addend: 0x0, symName: _ggml_gemv_iq4_nl_4x4_q8_0, symObjAddr: 0x4EB0, symBinAddr: 0x119310, symSize: 0x580 }
  - { offset: 0x2F48BF, size: 0x8, addend: 0x0, symName: _ggml_gemv_iq4_nl_8x8_q8_0, symObjAddr: 0x5430, symBinAddr: 0x119890, symSize: 0x4C0 }
  - { offset: 0x2F4AD0, size: 0x8, addend: 0x0, symName: _ggml_gemm_q4_0_4x4_q8_0, symObjAddr: 0x58F0, symBinAddr: 0x119D50, symSize: 0x920 }
  - { offset: 0x2F4D55, size: 0x8, addend: 0x0, symName: _ggml_gemm_q4_0_4x8_q8_0, symObjAddr: 0x6210, symBinAddr: 0x11A670, symSize: 0x960 }
  - { offset: 0x2F4F81, size: 0x8, addend: 0x0, symName: _ggml_gemm_q4_0_8x8_q8_0, symObjAddr: 0x6B70, symBinAddr: 0x11AFD0, symSize: 0xBF0 }
  - { offset: 0x2F51F0, size: 0x8, addend: 0x0, symName: _ggml_gemm_q2_K_8x8_q8_K, symObjAddr: 0x8EE0, symBinAddr: 0x11D340, symSize: 0x20F0 }
  - { offset: 0x2F55D3, size: 0x8, addend: 0x0, symName: _ggml_gemm_iq4_nl_4x4_q8_0, symObjAddr: 0xAFD0, symBinAddr: 0x11F430, symSize: 0x930 }
  - { offset: 0x2F5858, size: 0x8, addend: 0x0, symName: _ggml_gemm_iq4_nl_8x8_q8_0, symObjAddr: 0xB900, symBinAddr: 0x11FD60, symSize: 0x6E0 }
  - { offset: 0x2F5ADE, size: 0x8, addend: 0x0, symName: __ZL24repack_q4_0_to_q4_0_4_blP11ggml_tensoriPKvm, symObjAddr: 0xC000, symBinAddr: 0x120460, symSize: 0x480 }
  - { offset: 0x2F65BB, size: 0x8, addend: 0x0, symName: __ZL44ggml_backend_cpu_repack_buffer_type_get_nameP24ggml_backend_buffer_type, symObjAddr: 0xE480, symBinAddr: 0x1228E0, symSize: 0x10 }
  - { offset: 0x2F65E7, size: 0x8, addend: 0x0, symName: __ZL48ggml_backend_cpu_repack_buffer_type_alloc_bufferP24ggml_backend_buffer_typem, symObjAddr: 0xE490, symBinAddr: 0x1228F0, symSize: 0x50 }
  - { offset: 0x2F6682, size: 0x8, addend: 0x0, symName: __ZL49ggml_backend_cpu_repack_buffer_type_get_alignmentP24ggml_backend_buffer_type, symObjAddr: 0xE4E0, symBinAddr: 0x122940, symSize: 0x10 }
  - { offset: 0x2F66AE, size: 0x8, addend: 0x0, symName: __ZL42ggml_backend_cpu_repack_buffer_init_tensorP19ggml_backend_bufferP11ggml_tensor, symObjAddr: 0xE4F0, symBinAddr: 0x122950, symSize: 0x30 }
  - { offset: 0x2F6702, size: 0x8, addend: 0x0, symName: __ZL41ggml_backend_cpu_repack_buffer_set_tensorP19ggml_backend_bufferP11ggml_tensorPKvmm, symObjAddr: 0xE520, symBinAddr: 0x122980, symSize: 0xB0 }
  - { offset: 0x2F686C, size: 0x8, addend: 0x0, symName: __ZL35ggml_repack_get_optimal_repack_typePK11ggml_tensor.cold.1, symObjAddr: 0x153C0, symBinAddr: 0x156190, symSize: 0x40 }
  - { offset: 0x2F6884, size: 0x8, addend: 0x0, symName: __ZL35ggml_repack_get_optimal_repack_typePK11ggml_tensor.cold.2, symObjAddr: 0x15400, symBinAddr: 0x1561D0, symSize: 0x40 }
  - { offset: 0x2F689C, size: 0x8, addend: 0x0, symName: __ZL35ggml_repack_get_optimal_repack_typePK11ggml_tensor.cold.3, symObjAddr: 0x15440, symBinAddr: 0x156210, symSize: 0x40 }
  - { offset: 0x2F68B4, size: 0x8, addend: 0x0, symName: __ZL35ggml_repack_get_optimal_repack_typePK11ggml_tensor.cold.4, symObjAddr: 0x15480, symBinAddr: 0x156250, symSize: 0x40 }
  - { offset: 0x2F68CC, size: 0x8, addend: 0x0, symName: __ZL35ggml_repack_get_optimal_repack_typePK11ggml_tensor.cold.5, symObjAddr: 0x154C0, symBinAddr: 0x156290, symSize: 0x40 }
  - { offset: 0x2F68E4, size: 0x8, addend: 0x0, symName: __ZL35ggml_repack_get_optimal_repack_typePK11ggml_tensor.cold.6, symObjAddr: 0x15500, symBinAddr: 0x1562D0, symSize: 0x40 }
  - { offset: 0x2F68FC, size: 0x8, addend: 0x0, symName: __ZL35ggml_repack_get_optimal_repack_typePK11ggml_tensor.cold.7, symObjAddr: 0x15540, symBinAddr: 0x156310, symSize: 0x3D }
  - { offset: 0x2F6954, size: 0x8, addend: 0x0, symName: __ZN4ggml3cpu6repack13tensor_traitsI10block_q4_0Lx4ELx4EL9ggml_type8EED1Ev, symObjAddr: 0xE840, symBinAddr: 0x122CA0, symSize: 0x10 }
  - { offset: 0x2F69D6, size: 0x8, addend: 0x0, symName: __ZN4ggml3cpu6repack13tensor_traitsI10block_q4_0Lx8ELx4EL9ggml_type8EED1Ev, symObjAddr: 0xE850, symBinAddr: 0x122CB0, symSize: 0x10 }
  - { offset: 0x2F6A58, size: 0x8, addend: 0x0, symName: __ZN4ggml3cpu6repack13tensor_traitsI10block_q4_0Lx8ELx8EL9ggml_type8EED1Ev, symObjAddr: 0xE860, symBinAddr: 0x122CC0, symSize: 0x10 }
  - { offset: 0x2F6ADA, size: 0x8, addend: 0x0, symName: __ZN4ggml3cpu6repack13tensor_traitsI10block_q4_KLx8ELx8EL9ggml_type15EED1Ev, symObjAddr: 0xE870, symBinAddr: 0x122CD0, symSize: 0x10 }
  - { offset: 0x2F6B5C, size: 0x8, addend: 0x0, symName: __ZN4ggml3cpu6repack13tensor_traitsI10block_q2_KLx8ELx8EL9ggml_type15EED1Ev, symObjAddr: 0xE880, symBinAddr: 0x122CE0, symSize: 0x10 }
  - { offset: 0x2F6BDE, size: 0x8, addend: 0x0, symName: __ZN4ggml3cpu6repack13tensor_traitsI12block_iq4_nlLx4ELx4EL9ggml_type8EED1Ev, symObjAddr: 0xE890, symBinAddr: 0x122CF0, symSize: 0x10 }
  - { offset: 0x2F6C60, size: 0x8, addend: 0x0, symName: __ZN4ggml3cpu6repack13tensor_traitsI12block_iq4_nlLx8ELx8EL9ggml_type8EED1Ev, symObjAddr: 0xE8A0, symBinAddr: 0x122D00, symSize: 0x10 }
  - { offset: 0x2F6CDC, size: 0x8, addend: 0x0, symName: __ZN4ggml3cpu6repack13tensor_traitsI10block_q4_0Lx4ELx4EL9ggml_type8EED0Ev, symObjAddr: 0xE8B0, symBinAddr: 0x122D10, symSize: 0x20 }
  - { offset: 0x2F6D67, size: 0x8, addend: 0x0, symName: __ZN4ggml3cpu6repack13tensor_traitsI10block_q4_0Lx4ELx4EL9ggml_type8EE9work_sizeEiPK11ggml_tensorRm, symObjAddr: 0xE8D0, symBinAddr: 0x122D30, symSize: 0x90 }
  - { offset: 0x2F6E6C, size: 0x8, addend: 0x0, symName: __ZN4ggml3cpu6repack13tensor_traitsI10block_q4_0Lx4ELx4EL9ggml_type8EE15compute_forwardEP19ggml_compute_paramsP11ggml_tensor, symObjAddr: 0xE960, symBinAddr: 0x122DC0, symSize: 0x30 }
  - { offset: 0x2F6ED1, size: 0x8, addend: 0x0, symName: __ZN4ggml3cpu6repack13tensor_traitsI10block_q4_0Lx4ELx4EL9ggml_type8EE15forward_mul_matEP19ggml_compute_paramsP11ggml_tensor, symObjAddr: 0xF200, symBinAddr: 0x123660, symSize: 0x5A0 }
  - { offset: 0x2F7440, size: 0x8, addend: 0x0, symName: __ZN4ggml3cpu6repack13tensor_traitsI10block_q4_0Lx4ELx4EL9ggml_type8EE6repackEP11ggml_tensorPKvm, symObjAddr: 0xE990, symBinAddr: 0x122DF0, symSize: 0x80 }
  - { offset: 0x2F7557, size: 0x8, addend: 0x0, symName: __ZN4ggml3cpu6repack13tensor_traitsI10block_q4_0Lx8ELx4EL9ggml_type8EED0Ev, symObjAddr: 0xEA10, symBinAddr: 0x122E70, symSize: 0x20 }
  - { offset: 0x2F75E2, size: 0x8, addend: 0x0, symName: __ZN4ggml3cpu6repack13tensor_traitsI10block_q4_0Lx8ELx4EL9ggml_type8EE9work_sizeEiPK11ggml_tensorRm, symObjAddr: 0xEA30, symBinAddr: 0x122E90, symSize: 0x90 }
  - { offset: 0x2F76BC, size: 0x8, addend: 0x0, symName: __ZN4ggml3cpu6repack13tensor_traitsI10block_q4_0Lx8ELx4EL9ggml_type8EE15compute_forwardEP19ggml_compute_paramsP11ggml_tensor, symObjAddr: 0xEAC0, symBinAddr: 0x122F20, symSize: 0x30 }
  - { offset: 0x2F7721, size: 0x8, addend: 0x0, symName: __ZN4ggml3cpu6repack13tensor_traitsI10block_q4_0Lx8ELx4EL9ggml_type8EE15forward_mul_matEP19ggml_compute_paramsP11ggml_tensor, symObjAddr: 0xFFC0, symBinAddr: 0x124420, symSize: 0x5A0 }
  - { offset: 0x2F7C90, size: 0x8, addend: 0x0, symName: __ZN4ggml3cpu6repack13tensor_traitsI10block_q4_0Lx8ELx4EL9ggml_type8EE6repackEP11ggml_tensorPKvm, symObjAddr: 0xEAF0, symBinAddr: 0x122F50, symSize: 0x80 }
  - { offset: 0x2F7D81, size: 0x8, addend: 0x0, symName: __ZN4ggml3cpu6repack13tensor_traitsI10block_q4_0Lx8ELx8EL9ggml_type8EED0Ev, symObjAddr: 0xEB70, symBinAddr: 0x122FD0, symSize: 0x20 }
  - { offset: 0x2F7E0C, size: 0x8, addend: 0x0, symName: __ZN4ggml3cpu6repack13tensor_traitsI10block_q4_0Lx8ELx8EL9ggml_type8EE9work_sizeEiPK11ggml_tensorRm, symObjAddr: 0xEB90, symBinAddr: 0x122FF0, symSize: 0x90 }
  - { offset: 0x2F7EE6, size: 0x8, addend: 0x0, symName: __ZN4ggml3cpu6repack13tensor_traitsI10block_q4_0Lx8ELx8EL9ggml_type8EE15compute_forwardEP19ggml_compute_paramsP11ggml_tensor, symObjAddr: 0xEC20, symBinAddr: 0x123080, symSize: 0x30 }
  - { offset: 0x2F7F4B, size: 0x8, addend: 0x0, symName: __ZN4ggml3cpu6repack13tensor_traitsI10block_q4_0Lx8ELx8EL9ggml_type8EE15forward_mul_matEP19ggml_compute_paramsP11ggml_tensor, symObjAddr: 0x10D80, symBinAddr: 0x1251E0, symSize: 0x5A0 }
  - { offset: 0x2F84BA, size: 0x8, addend: 0x0, symName: __ZN4ggml3cpu6repack13tensor_traitsI10block_q4_0Lx8ELx8EL9ggml_type8EE6repackEP11ggml_tensorPKvm, symObjAddr: 0xEC50, symBinAddr: 0x1230B0, symSize: 0x70 }
  - { offset: 0x2F856F, size: 0x8, addend: 0x0, symName: __ZN4ggml3cpu6repack13tensor_traitsI10block_q4_KLx8ELx8EL9ggml_type15EED0Ev, symObjAddr: 0xECC0, symBinAddr: 0x123120, symSize: 0x20 }
  - { offset: 0x2F85FA, size: 0x8, addend: 0x0, symName: __ZN4ggml3cpu6repack13tensor_traitsI10block_q4_KLx8ELx8EL9ggml_type15EE9work_sizeEiPK11ggml_tensorRm, symObjAddr: 0xECE0, symBinAddr: 0x123140, symSize: 0x90 }
  - { offset: 0x2F86D4, size: 0x8, addend: 0x0, symName: __ZN4ggml3cpu6repack13tensor_traitsI10block_q4_KLx8ELx8EL9ggml_type15EE15compute_forwardEP19ggml_compute_paramsP11ggml_tensor, symObjAddr: 0xED70, symBinAddr: 0x1231D0, symSize: 0x30 }
  - { offset: 0x2F8739, size: 0x8, addend: 0x0, symName: __ZN4ggml3cpu6repack13tensor_traitsI10block_q4_KLx8ELx8EL9ggml_type15EE15forward_mul_matEP19ggml_compute_paramsP11ggml_tensor, symObjAddr: 0x11B40, symBinAddr: 0x125FA0, symSize: 0x5A0 }
  - { offset: 0x2F8CA8, size: 0x8, addend: 0x0, symName: __ZN4ggml3cpu6repack13tensor_traitsI10block_q4_KLx8ELx8EL9ggml_type15EE6repackEP11ggml_tensorPKvm, symObjAddr: 0xEDA0, symBinAddr: 0x123200, symSize: 0x70 }
  - { offset: 0x2F8D5D, size: 0x8, addend: 0x0, symName: __ZN4ggml3cpu6repack13tensor_traitsI10block_q2_KLx8ELx8EL9ggml_type15EED0Ev, symObjAddr: 0xEE10, symBinAddr: 0x123270, symSize: 0x20 }
  - { offset: 0x2F8DE8, size: 0x8, addend: 0x0, symName: __ZN4ggml3cpu6repack13tensor_traitsI10block_q2_KLx8ELx8EL9ggml_type15EE9work_sizeEiPK11ggml_tensorRm, symObjAddr: 0xEE30, symBinAddr: 0x123290, symSize: 0x90 }
  - { offset: 0x2F8EC2, size: 0x8, addend: 0x0, symName: __ZN4ggml3cpu6repack13tensor_traitsI10block_q2_KLx8ELx8EL9ggml_type15EE15compute_forwardEP19ggml_compute_paramsP11ggml_tensor, symObjAddr: 0xEEC0, symBinAddr: 0x123320, symSize: 0x30 }
  - { offset: 0x2F8F27, size: 0x8, addend: 0x0, symName: __ZN4ggml3cpu6repack13tensor_traitsI10block_q2_KLx8ELx8EL9ggml_type15EE15forward_mul_matEP19ggml_compute_paramsP11ggml_tensor, symObjAddr: 0x12900, symBinAddr: 0x126D60, symSize: 0x5A0 }
  - { offset: 0x2F9496, size: 0x8, addend: 0x0, symName: __ZN4ggml3cpu6repack13tensor_traitsI10block_q2_KLx8ELx8EL9ggml_type15EE6repackEP11ggml_tensorPKvm, symObjAddr: 0xEEF0, symBinAddr: 0x123350, symSize: 0x70 }
  - { offset: 0x2F954B, size: 0x8, addend: 0x0, symName: __ZN4ggml3cpu6repack13tensor_traitsI12block_iq4_nlLx4ELx4EL9ggml_type8EED0Ev, symObjAddr: 0xEF60, symBinAddr: 0x1233C0, symSize: 0x20 }
  - { offset: 0x2F95D6, size: 0x8, addend: 0x0, symName: __ZN4ggml3cpu6repack13tensor_traitsI12block_iq4_nlLx4ELx4EL9ggml_type8EE9work_sizeEiPK11ggml_tensorRm, symObjAddr: 0xEF80, symBinAddr: 0x1233E0, symSize: 0x90 }
  - { offset: 0x2F96B0, size: 0x8, addend: 0x0, symName: __ZN4ggml3cpu6repack13tensor_traitsI12block_iq4_nlLx4ELx4EL9ggml_type8EE15compute_forwardEP19ggml_compute_paramsP11ggml_tensor, symObjAddr: 0xF010, symBinAddr: 0x123470, symSize: 0x30 }
  - { offset: 0x2F9715, size: 0x8, addend: 0x0, symName: __ZN4ggml3cpu6repack13tensor_traitsI12block_iq4_nlLx4ELx4EL9ggml_type8EE15forward_mul_matEP19ggml_compute_paramsP11ggml_tensor, symObjAddr: 0x136C0, symBinAddr: 0x127B20, symSize: 0x5A0 }
  - { offset: 0x2F9C84, size: 0x8, addend: 0x0, symName: __ZN4ggml3cpu6repack13tensor_traitsI12block_iq4_nlLx4ELx4EL9ggml_type8EE6repackEP11ggml_tensorPKvm, symObjAddr: 0xF040, symBinAddr: 0x1234A0, symSize: 0x70 }
  - { offset: 0x2F9D39, size: 0x8, addend: 0x0, symName: __ZN4ggml3cpu6repack13tensor_traitsI12block_iq4_nlLx8ELx8EL9ggml_type8EED0Ev, symObjAddr: 0xF0B0, symBinAddr: 0x123510, symSize: 0x20 }
  - { offset: 0x2F9DC4, size: 0x8, addend: 0x0, symName: __ZN4ggml3cpu6repack13tensor_traitsI12block_iq4_nlLx8ELx8EL9ggml_type8EE9work_sizeEiPK11ggml_tensorRm, symObjAddr: 0xF0D0, symBinAddr: 0x123530, symSize: 0x90 }
  - { offset: 0x2F9E9E, size: 0x8, addend: 0x0, symName: __ZN4ggml3cpu6repack13tensor_traitsI12block_iq4_nlLx8ELx8EL9ggml_type8EE15compute_forwardEP19ggml_compute_paramsP11ggml_tensor, symObjAddr: 0xF160, symBinAddr: 0x1235C0, symSize: 0x30 }
  - { offset: 0x2F9F03, size: 0x8, addend: 0x0, symName: __ZN4ggml3cpu6repack13tensor_traitsI12block_iq4_nlLx8ELx8EL9ggml_type8EE15forward_mul_matEP19ggml_compute_paramsP11ggml_tensor, symObjAddr: 0x14480, symBinAddr: 0x1288E0, symSize: 0x5A0 }
  - { offset: 0x2FA472, size: 0x8, addend: 0x0, symName: __ZN4ggml3cpu6repack13tensor_traitsI12block_iq4_nlLx8ELx8EL9ggml_type8EE6repackEP11ggml_tensorPKvm, symObjAddr: 0xF190, symBinAddr: 0x1235F0, symSize: 0x70 }
  - { offset: 0x2FA67A, size: 0x8, addend: 0x0, symName: __ZN4ggml3cpu6repack17extra_buffer_typeD1Ev, symObjAddr: 0x15240, symBinAddr: 0x1296A0, symSize: 0x10 }
  - { offset: 0x2FA6D7, size: 0x8, addend: 0x0, symName: __ZN4ggml3cpu6repack17extra_buffer_typeD0Ev, symObjAddr: 0x15250, symBinAddr: 0x1296B0, symSize: 0x20 }
  - { offset: 0x2FA743, size: 0x8, addend: 0x0, symName: __ZN4ggml3cpu6repack17extra_buffer_type11supports_opEP19ggml_backend_devicePK11ggml_tensor, symObjAddr: 0x15270, symBinAddr: 0x1296D0, symSize: 0xF0 }
  - { offset: 0x2FA7FC, size: 0x8, addend: 0x0, symName: __ZN4ggml3cpu6repack17extra_buffer_type17get_tensor_traitsEPK11ggml_tensor, symObjAddr: 0x15360, symBinAddr: 0x1297C0, symSize: 0x60 }
  - { offset: 0x2FD4CC, size: 0x8, addend: 0x0, symName: __ZN4ggml3cpu13tensor_traitsD2Ev, symObjAddr: 0x0, symBinAddr: 0x129820, symSize: 0x10 }
  - { offset: 0x2FED5E, size: 0x8, addend: 0x0, symName: __ZN4ggml3cpu13tensor_traitsD2Ev, symObjAddr: 0x0, symBinAddr: 0x129820, symSize: 0x10 }
  - { offset: 0x2FED89, size: 0x8, addend: 0x0, symName: __ZN4ggml3cpu13tensor_traitsD1Ev, symObjAddr: 0x10, symBinAddr: 0x129830, symSize: 0x10 }
  - { offset: 0x2FEDB2, size: 0x8, addend: 0x0, symName: __ZN4ggml3cpu13tensor_traitsD0Ev, symObjAddr: 0x20, symBinAddr: 0x129840, symSize: 0x10 }
  - { offset: 0x2FEDDB, size: 0x8, addend: 0x0, symName: __ZN4ggml3cpu17extra_buffer_typeD2Ev, symObjAddr: 0x30, symBinAddr: 0x129850, symSize: 0x10 }
  - { offset: 0x2FEE06, size: 0x8, addend: 0x0, symName: __ZN4ggml3cpu17extra_buffer_typeD1Ev, symObjAddr: 0x40, symBinAddr: 0x129860, symSize: 0x10 }
  - { offset: 0x2FEE2F, size: 0x8, addend: 0x0, symName: __ZN4ggml3cpu17extra_buffer_typeD0Ev, symObjAddr: 0x50, symBinAddr: 0x129870, symSize: 0x10 }
  - { offset: 0x2FEEB0, size: 0x8, addend: 0x0, symName: _ggml_cpu_extra_compute_forward, symObjAddr: 0x60, symBinAddr: 0x129880, symSize: 0x70 }
  - { offset: 0x2FF03A, size: 0x8, addend: 0x0, symName: _ggml_cpu_extra_work_size, symObjAddr: 0xD0, symBinAddr: 0x1298F0, symSize: 0x85 }
  - { offset: 0x3010D4, size: 0x8, addend: 0x0, symName: _ggml_compute_forward_abs, symObjAddr: 0x0, symBinAddr: 0x129980, symSize: 0x1230 }
  - { offset: 0x302BD0, size: 0x8, addend: 0x0, symName: _ggml_compute_forward_abs, symObjAddr: 0x0, symBinAddr: 0x129980, symSize: 0x1230 }
  - { offset: 0x3043C5, size: 0x8, addend: 0x0, symName: _ggml_compute_forward_sgn, symObjAddr: 0x1230, symBinAddr: 0x12ABB0, symSize: 0x1310 }
  - { offset: 0x3059BE, size: 0x8, addend: 0x0, symName: _ggml_compute_forward_neg, symObjAddr: 0x2540, symBinAddr: 0x12BEC0, symSize: 0x1260 }
  - { offset: 0x306F36, size: 0x8, addend: 0x0, symName: _ggml_compute_forward_step, symObjAddr: 0x37A0, symBinAddr: 0x12D120, symSize: 0x11E0 }
  - { offset: 0x3084CE, size: 0x8, addend: 0x0, symName: _ggml_compute_forward_tanh, symObjAddr: 0x4980, symBinAddr: 0x12E300, symSize: 0xE90 }
  - { offset: 0x309ABC, size: 0x8, addend: 0x0, symName: _ggml_compute_forward_elu, symObjAddr: 0x5810, symBinAddr: 0x12F190, symSize: 0xC60 }
  - { offset: 0x30B0DE, size: 0x8, addend: 0x0, symName: _ggml_compute_forward_relu, symObjAddr: 0x6470, symBinAddr: 0x12FDF0, symSize: 0x11E0 }
  - { offset: 0x30C6E7, size: 0x8, addend: 0x0, symName: _ggml_compute_forward_sigmoid, symObjAddr: 0x7650, symBinAddr: 0x130FD0, symSize: 0x1670 }
  - { offset: 0x30DC82, size: 0x8, addend: 0x0, symName: _ggml_compute_forward_hardsigmoid, symObjAddr: 0x8CC0, symBinAddr: 0x132640, symSize: 0x1240 }
  - { offset: 0x30F20B, size: 0x8, addend: 0x0, symName: _ggml_compute_forward_exp, symObjAddr: 0x9F00, symBinAddr: 0x133880, symSize: 0x1560 }
  - { offset: 0x31080B, size: 0x8, addend: 0x0, symName: _ggml_compute_forward_hardswish, symObjAddr: 0xB460, symBinAddr: 0x134DE0, symSize: 0x1290 }
  - { offset: 0x311E09, size: 0x8, addend: 0x0, symName: _ggml_compute_forward_sqr, symObjAddr: 0xC6F0, symBinAddr: 0x136070, symSize: 0x1220 }
  - { offset: 0x31341E, size: 0x8, addend: 0x0, symName: _ggml_compute_forward_sqrt, symObjAddr: 0xD910, symBinAddr: 0x137290, symSize: 0x11F0 }
  - { offset: 0x314A2F, size: 0x8, addend: 0x0, symName: _ggml_compute_forward_sin, symObjAddr: 0xEB00, symBinAddr: 0x138480, symSize: 0x1560 }
  - { offset: 0x316033, size: 0x8, addend: 0x0, symName: _ggml_compute_forward_cos, symObjAddr: 0x10060, symBinAddr: 0x1399E0, symSize: 0x1560 }
  - { offset: 0x317637, size: 0x8, addend: 0x0, symName: _ggml_compute_forward_log, symObjAddr: 0x115C0, symBinAddr: 0x13AF40, symSize: 0x1560 }
  - { offset: 0x3182F0, size: 0x8, addend: 0x0, symName: _ggml_compute_forward_xielu, symObjAddr: 0x12B20, symBinAddr: 0x13C4A0, symSize: 0xEBB }
  - { offset: 0x31B98D, size: 0x8, addend: 0x0, symName: _ggml_vec_dot_f32, symObjAddr: 0x0, symBinAddr: 0x13D360, symSize: 0x140 }
  - { offset: 0x31B9A7, size: 0x8, addend: 0x0, symName: _ggml_table_gelu_f16, symObjAddr: 0xB3B0, symBinAddr: 0x204BE0, symSize: 0x0 }
  - { offset: 0x31B9DC, size: 0x8, addend: 0x0, symName: _ggml_table_gelu_quick_f16, symObjAddr: 0x2B3B0, symBinAddr: 0x224BE0, symSize: 0x0 }
  - { offset: 0x31BA30, size: 0x8, addend: 0x0, symName: _ggml_vec_dot_f32, symObjAddr: 0x0, symBinAddr: 0x13D360, symSize: 0x140 }
  - { offset: 0x31BBE6, size: 0x8, addend: 0x0, symName: _ggml_vec_dot_bf16, symObjAddr: 0x140, symBinAddr: 0x13D4A0, symSize: 0xD0 }
  - { offset: 0x31BD1D, size: 0x8, addend: 0x0, symName: _ggml_vec_dot_f16, symObjAddr: 0x210, symBinAddr: 0x13D570, symSize: 0x4D0 }
  - { offset: 0x31C03E, size: 0x8, addend: 0x0, symName: _ggml_vec_silu_f32, symObjAddr: 0x6E0, symBinAddr: 0x13DA40, symSize: 0x340 }
  - { offset: 0x31C153, size: 0x8, addend: 0x0, symName: _ggml_vec_swiglu_f32, symObjAddr: 0xA20, symBinAddr: 0x13DD80, symSize: 0x3B0 }
  - { offset: 0x31C279, size: 0x8, addend: 0x0, symName: _ggml_vec_cvar_f32, symObjAddr: 0xDD0, symBinAddr: 0x13E130, symSize: 0x110 }
  - { offset: 0x31C33E, size: 0x8, addend: 0x0, symName: _ggml_vec_soft_max_f32, symObjAddr: 0xEE0, symBinAddr: 0x13E240, symSize: 0x2A0 }
  - { offset: 0x31C46A, size: 0x8, addend: 0x0, symName: _ggml_vec_log_soft_max_f32, symObjAddr: 0x1180, symBinAddr: 0x13E4E0, symSize: 0xF7 }
  - { offset: 0x31F152, size: 0x8, addend: 0x0, symName: _ggml_mem_ranges_init, symObjAddr: 0x0, symBinAddr: 0x13E5E0, symSize: 0x40 }
  - { offset: 0x325DAD, size: 0x8, addend: 0x0, symName: _ggml_mem_ranges_init, symObjAddr: 0x0, symBinAddr: 0x13E5E0, symSize: 0x40 }
  - { offset: 0x326112, size: 0x8, addend: 0x0, symName: _ggml_mem_ranges_free, symObjAddr: 0x40, symBinAddr: 0x13E620, symSize: 0x40 }
  - { offset: 0x32630F, size: 0x8, addend: 0x0, symName: _ggml_mem_ranges_reset, symObjAddr: 0x80, symBinAddr: 0x13E660, symSize: 0x10 }
  - { offset: 0x3263AF, size: 0x8, addend: 0x0, symName: _ggml_mem_ranges_add, symObjAddr: 0x90, symBinAddr: 0x13E670, symSize: 0xF0 }
  - { offset: 0x326502, size: 0x8, addend: 0x0, symName: __ZL23ggml_mem_ranges_add_srcP15ggml_mem_rangesPK11ggml_tensor, symObjAddr: 0x180, symBinAddr: 0x13E760, symSize: 0x1F0 }
  - { offset: 0x326A2B, size: 0x8, addend: 0x0, symName: __ZL23ggml_mem_ranges_add_dstP15ggml_mem_rangesPK11ggml_tensor, symObjAddr: 0x370, symBinAddr: 0x13E950, symSize: 0x220 }
  - { offset: 0x327232, size: 0x8, addend: 0x0, symName: __ZNKSt3__16vectorI14ggml_mem_rangeNS_9allocatorIS1_EEE20__throw_length_errorB8ne190102Ev, symObjAddr: 0x1C10, symBinAddr: 0x1401F0, symSize: 0x10 }
  - { offset: 0x327284, size: 0x8, addend: 0x0, symName: _ggml_mem_ranges_check, symObjAddr: 0x590, symBinAddr: 0x13EB70, symSize: 0x130 }
  - { offset: 0x3273C8, size: 0x8, addend: 0x0, symName: __ZL25ggml_mem_ranges_check_srcP15ggml_mem_rangesPK11ggml_tensor, symObjAddr: 0x6C0, symBinAddr: 0x13ECA0, symSize: 0x150 }
  - { offset: 0x3274DE, size: 0x8, addend: 0x0, symName: __ZL25ggml_mem_ranges_check_dstP15ggml_mem_rangesPK11ggml_tensor, symObjAddr: 0x810, symBinAddr: 0x13EDF0, symSize: 0x190 }
  - { offset: 0x3289A2, size: 0x8, addend: 0x0, symName: _ggml_graph_optimize, symObjAddr: 0x9A0, symBinAddr: 0x13EF80, symSize: 0x10E0 }
  - { offset: 0x32B605, size: 0x8, addend: 0x0, symName: __ZNSt3__16vectorI9node_infoNS_9allocatorIS1_EEE7reserveEm, symObjAddr: 0x1A80, symBinAddr: 0x140060, symSize: 0x120 }
  - { offset: 0x32BC99, size: 0x8, addend: 0x0, symName: __ZNSt3__16vectorI9node_infoNS_9allocatorIS1_EEE21__push_back_slow_pathIS1_EEPS1_OT_, symObjAddr: 0x23E0, symBinAddr: 0x1408E0, symSize: 0x18B }
  - { offset: 0x32C46C, size: 0x8, addend: 0x0, symName: '__ZZL33ggml_metal_graph_optimize_reorderRKNSt3__16vectorI9node_infoNS_9allocatorIS1_EEEEENK3$_1clEP15ggml_mem_rangesRKS1_', symObjAddr: 0x1CF0, symBinAddr: 0x140200, symSize: 0x330 }
  - { offset: 0x32C7D0, size: 0x8, addend: 0x0, symName: '__ZZL33ggml_metal_graph_optimize_reorderRKNSt3__16vectorI9node_infoNS_9allocatorIS1_EEEEENK3$_0clEP15ggml_mem_rangesRKS1_', symObjAddr: 0x2020, symBinAddr: 0x140530, symSize: 0x3A0 }
  - { offset: 0x32CF92, size: 0x8, addend: 0x0, symName: '__ZZL33ggml_metal_graph_optimize_reorderRKNSt3__16vectorI9node_infoNS_9allocatorIS1_EEEEENK3$_1clEP15ggml_mem_rangesRKS1_', symObjAddr: 0x1CF0, symBinAddr: 0x140200, symSize: 0x330 }
  - { offset: 0x32CFB5, size: 0x8, addend: 0x0, symName: __ZNKSt3__16vectorI9node_infoNS_9allocatorIS1_EEE20__throw_length_errorB8ne190102Ev, symObjAddr: 0x23D0, symBinAddr: 0x1408D0, symSize: 0x10 }
  - { offset: 0x32CFC0, size: 0x8, addend: 0x0, symName: __ZNSt3__16vectorI9node_infoNS_9allocatorIS1_EEED1B8ne190102Ev, symObjAddr: 0x1BA0, symBinAddr: 0x140180, symSize: 0x70 }
  - { offset: 0x32D405, size: 0x8, addend: 0x0, symName: __ZNKSt3__16vectorI9node_infoNS_9allocatorIS1_EEE20__throw_length_errorB8ne190102Ev, symObjAddr: 0x23D0, symBinAddr: 0x1408D0, symSize: 0x10 }
  - { offset: 0x32D42F, size: 0x8, addend: 0x0, symName: __ZNSt3__16vectorI9node_infoNS_9allocatorIS1_EEE21__push_back_slow_pathIS1_EEPS1_OT_, symObjAddr: 0x23E0, symBinAddr: 0x1408E0, symSize: 0x18B }
  - { offset: 0x32F493, size: 0x8, addend: 0x0, symName: _ggml_metal_init, symObjAddr: 0x0, symBinAddr: 0x140A70, symSize: 0x2C0 }
  - { offset: 0x32F970, size: 0x8, addend: 0x0, symName: _ggml_metal_init, symObjAddr: 0x0, symBinAddr: 0x140A70, symSize: 0x2C0 }
  - { offset: 0x32FE48, size: 0x8, addend: 0x0, symName: _ggml_metal_free, symObjAddr: 0x2C0, symBinAddr: 0x140D30, symSize: 0x200 }
  - { offset: 0x330076, size: 0x8, addend: 0x0, symName: _ggml_metal_synchronize, symObjAddr: 0x4C0, symBinAddr: 0x140F30, symSize: 0x260 }
  - { offset: 0x330EA9, size: 0x8, addend: 0x0, symName: _ggml_metal_set_tensor_async, symObjAddr: 0x720, symBinAddr: 0x141190, symSize: 0x190 }
  - { offset: 0x3310C9, size: 0x8, addend: 0x0, symName: _ggml_metal_get_tensor_async, symObjAddr: 0x8B0, symBinAddr: 0x141320, symSize: 0x1A0 }
  - { offset: 0x3312BD, size: 0x8, addend: 0x0, symName: _ggml_metal_graph_compute, symObjAddr: 0xA50, symBinAddr: 0x1414C0, symSize: 0x5F0 }
  - { offset: 0x331809, size: 0x8, addend: 0x0, symName: _ggml_metal_graph_optimize, symObjAddr: 0x1040, symBinAddr: 0x141AB0, symSize: 0x20 }
  - { offset: 0x33185E, size: 0x8, addend: 0x0, symName: _ggml_metal_set_n_cb, symObjAddr: 0x1060, symBinAddr: 0x141AD0, symSize: 0xA0 }
  - { offset: 0x3318E4, size: 0x8, addend: 0x0, symName: ___ggml_metal_set_n_cb_block_invoke, symObjAddr: 0x1100, symBinAddr: 0x141B70, symSize: 0x120 }
  - { offset: 0x331B33, size: 0x8, addend: 0x0, symName: _ggml_metal_set_abort_callback, symObjAddr: 0x1220, symBinAddr: 0x141C90, symSize: 0x20 }
  - { offset: 0x331B78, size: 0x8, addend: 0x0, symName: _ggml_metal_supports_family, symObjAddr: 0x1240, symBinAddr: 0x141CB0, symSize: 0x50 }
  - { offset: 0x331BD9, size: 0x8, addend: 0x0, symName: _ggml_metal_capture_next_compute, symObjAddr: 0x1290, symBinAddr: 0x141D00, symSize: 0xD }
  - { offset: 0x332369, size: 0x8, addend: 0x0, symName: _ggml_metal_device_get, symObjAddr: 0x0, symBinAddr: 0x141D10, symSize: 0x80 }
  - { offset: 0x33238F, size: 0x8, addend: 0x0, symName: __ZZ21ggml_metal_device_getE3ctx, symObjAddr: 0x509F8, symBinAddr: 0x204A58, symSize: 0x0 }
  - { offset: 0x33283D, size: 0x8, addend: 0x0, symName: __ZNSt3__119piecewise_constructE, symObjAddr: 0x55F0, symBinAddr: 0x16BDF4, symSize: 0x0 }
  - { offset: 0x339581, size: 0x8, addend: 0x0, symName: __ZNSt3__110unique_ptrI17ggml_metal_device25ggml_metal_device_deleterED1B8ne190102Ev, symObjAddr: 0x80, symBinAddr: 0x141D90, symSize: 0x30 }
  - { offset: 0x33993F, size: 0x8, addend: 0x0, symName: _ggml_metal_pipelines_init, symObjAddr: 0xB0, symBinAddr: 0x141DC0, symSize: 0x30 }
  - { offset: 0x339E9F, size: 0x8, addend: 0x0, symName: _ggml_metal_pipelines_free, symObjAddr: 0xE0, symBinAddr: 0x141DF0, symSize: 0x90 }
  - { offset: 0x33A630, size: 0x8, addend: 0x0, symName: _ggml_metal_pipelines_add, symObjAddr: 0x170, symBinAddr: 0x141E80, symSize: 0x100 }
  - { offset: 0x33AC8D, size: 0x8, addend: 0x0, symName: __ZNSt3__112__hash_tableINS_17__hash_value_typeINS_12basic_stringIcNS_11char_traitsIcEENS_9allocatorIcEEEEP19ggml_metal_pipelineEENS_22__unordered_map_hasherIS7_SA_NS_4hashIS7_EENS_8equal_toIS7_EELb1EEENS_21__unordered_map_equalIS7_SA_SF_SD_Lb1EEENS5_ISA_EEE25__emplace_unique_key_argsIS7_JRKNS_21piecewise_construct_tENS_5tupleIJOS7_EEENSP_IJEEEEEENS_4pairINS_15__hash_iteratorIPNS_11__hash_nodeISA_PvEEEEbEERKT_DpOT0_, symObjAddr: 0x3BD0, symBinAddr: 0x145800, symSize: 0x5E0 }
  - { offset: 0x33B675, size: 0x8, addend: 0x0, symName: _ggml_metal_pipelines_get, symObjAddr: 0x270, symBinAddr: 0x141F80, symSize: 0x1A0 }
  - { offset: 0x33C14D, size: 0x8, addend: 0x0, symName: __ZNSt3__112__hash_tableINS_17__hash_value_typeINS_12basic_stringIcNS_11char_traitsIcEENS_9allocatorIcEEEEP19ggml_metal_pipelineEENS_22__unordered_map_hasherIS7_SA_NS_4hashIS7_EENS_8equal_toIS7_EELb1EEENS_21__unordered_map_equalIS7_SA_SF_SD_Lb1EEENS5_ISA_EEE4findIS7_EENS_15__hash_iteratorIPNS_11__hash_nodeISA_PvEEEERKT_, symObjAddr: 0x48E0, symBinAddr: 0x146510, symSize: 0x289 }
  - { offset: 0x33C486, size: 0x8, addend: 0x0, symName: _ggml_metal_library_get_pipeline_base, symObjAddr: 0x410, symBinAddr: 0x142120, symSize: 0xF0 }
  - { offset: 0x33C63F, size: 0x8, addend: 0x0, symName: _ggml_metal_library_get_pipeline_cpy, symObjAddr: 0x500, symBinAddr: 0x142210, symSize: 0xD0 }
  - { offset: 0x33C78D, size: 0x8, addend: 0x0, symName: _ggml_metal_library_get_pipeline_pool_2d, symObjAddr: 0x5D0, symBinAddr: 0x1422E0, symSize: 0x170 }
  - { offset: 0x33C935, size: 0x8, addend: 0x0, symName: _ggml_metal_library_get_pipeline_get_rows, symObjAddr: 0x740, symBinAddr: 0x142450, symSize: 0xC0 }
  - { offset: 0x33CA43, size: 0x8, addend: 0x0, symName: _ggml_metal_library_get_pipeline_set_rows, symObjAddr: 0x800, symBinAddr: 0x142510, symSize: 0xD0 }
  - { offset: 0x33CB7E, size: 0x8, addend: 0x0, symName: _ggml_metal_library_get_pipeline_repeat, symObjAddr: 0x8D0, symBinAddr: 0x1425E0, symSize: 0xC0 }
  - { offset: 0x33CC8C, size: 0x8, addend: 0x0, symName: _ggml_metal_library_get_pipeline_unary, symObjAddr: 0x990, symBinAddr: 0x1426A0, symSize: 0x300 }
  - { offset: 0x33CE74, size: 0x8, addend: 0x0, symName: _ggml_metal_library_get_pipeline_glu, symObjAddr: 0xC90, symBinAddr: 0x1429A0, symSize: 0x160 }
  - { offset: 0x33D020, size: 0x8, addend: 0x0, symName: _ggml_metal_library_get_pipeline_sum, symObjAddr: 0xDF0, symBinAddr: 0x142B00, symSize: 0xC0 }
  - { offset: 0x33D12B, size: 0x8, addend: 0x0, symName: _ggml_metal_library_get_pipeline_sum_rows, symObjAddr: 0xEB0, symBinAddr: 0x142BC0, symSize: 0x150 }
  - { offset: 0x33D2C6, size: 0x8, addend: 0x0, symName: _ggml_metal_library_get_pipeline_soft_max, symObjAddr: 0x1000, symBinAddr: 0x142D10, symSize: 0x120 }
  - { offset: 0x33D428, size: 0x8, addend: 0x0, symName: _ggml_metal_library_get_pipeline_ssm_conv, symObjAddr: 0x1120, symBinAddr: 0x142E30, symSize: 0x1C0 }
  - { offset: 0x33D5D8, size: 0x8, addend: 0x0, symName: _ggml_metal_library_get_pipeline_ssm_scan, symObjAddr: 0x12E0, symBinAddr: 0x142FF0, symSize: 0x100 }
  - { offset: 0x33D741, size: 0x8, addend: 0x0, symName: _ggml_metal_library_get_pipeline_rwkv, symObjAddr: 0x13E0, symBinAddr: 0x1430F0, symSize: 0x280 }
  - { offset: 0x33D916, size: 0x8, addend: 0x0, symName: _ggml_metal_library_get_pipeline_mul_mv_ext, symObjAddr: 0x1660, symBinAddr: 0x143370, symSize: 0x130 }
  - { offset: 0x33DB3B, size: 0x8, addend: 0x0, symName: _ggml_metal_library_get_pipeline_mul_mm, symObjAddr: 0x1790, symBinAddr: 0x1434A0, symSize: 0x170 }
  - { offset: 0x33DD5E, size: 0x8, addend: 0x0, symName: _ggml_metal_library_get_pipeline_mul_mv, symObjAddr: 0x1900, symBinAddr: 0x143610, symSize: 0x370 }
  - { offset: 0x33E0B2, size: 0x8, addend: 0x0, symName: _ggml_metal_library_get_pipeline_mul_mm_id_map0, symObjAddr: 0x1C70, symBinAddr: 0x143980, symSize: 0xE0 }
  - { offset: 0x33E1EE, size: 0x8, addend: 0x0, symName: _ggml_metal_library_get_pipeline_mul_mm_id, symObjAddr: 0x1D50, symBinAddr: 0x143A60, symSize: 0x130 }
  - { offset: 0x33E3C2, size: 0x8, addend: 0x0, symName: _ggml_metal_library_get_pipeline_mul_mv_id, symObjAddr: 0x1E80, symBinAddr: 0x143B90, symSize: 0x320 }
  - { offset: 0x33E6CD, size: 0x8, addend: 0x0, symName: _ggml_metal_library_get_pipeline_argmax, symObjAddr: 0x21A0, symBinAddr: 0x143EB0, symSize: 0x170 }
  - { offset: 0x33E850, size: 0x8, addend: 0x0, symName: _ggml_metal_library_get_pipeline_argsort, symObjAddr: 0x2310, symBinAddr: 0x144020, symSize: 0x110 }
  - { offset: 0x33E9B0, size: 0x8, addend: 0x0, symName: _ggml_metal_library_get_pipeline_flash_attn_ext_pad, symObjAddr: 0x2420, symBinAddr: 0x144130, symSize: 0x100 }
  - { offset: 0x33EB64, size: 0x8, addend: 0x0, symName: _ggml_metal_library_get_pipeline_flash_attn_ext_blk, symObjAddr: 0x2520, symBinAddr: 0x144230, symSize: 0x100 }
  - { offset: 0x33ED0A, size: 0x8, addend: 0x0, symName: _ggml_metal_library_get_pipeline_flash_attn_ext, symObjAddr: 0x2620, symBinAddr: 0x144330, symSize: 0x2A0 }
  - { offset: 0x33F03C, size: 0x8, addend: 0x0, symName: _ggml_metal_library_get_pipeline_flash_attn_ext_vec, symObjAddr: 0x28C0, symBinAddr: 0x1445D0, symSize: 0x290 }
  - { offset: 0x33F36C, size: 0x8, addend: 0x0, symName: _ggml_metal_library_get_pipeline_flash_attn_ext_vec_reduce, symObjAddr: 0x2B50, symBinAddr: 0x144860, symSize: 0x100 }
  - { offset: 0x33F4F5, size: 0x8, addend: 0x0, symName: _ggml_metal_library_get_pipeline_bin, symObjAddr: 0x2C50, symBinAddr: 0x144960, symSize: 0x100 }
  - { offset: 0x33F63C, size: 0x8, addend: 0x0, symName: _ggml_metal_library_get_pipeline_l2_norm, symObjAddr: 0x2D50, symBinAddr: 0x144A60, symSize: 0x120 }
  - { offset: 0x33F76F, size: 0x8, addend: 0x0, symName: _ggml_metal_library_get_pipeline_group_norm, symObjAddr: 0x2E70, symBinAddr: 0x144B80, symSize: 0x100 }
  - { offset: 0x33F88B, size: 0x8, addend: 0x0, symName: _ggml_metal_library_get_pipeline_norm, symObjAddr: 0x2F70, symBinAddr: 0x144C80, symSize: 0x1A0 }
  - { offset: 0x33FA3E, size: 0x8, addend: 0x0, symName: _ggml_metal_library_get_pipeline_rope, symObjAddr: 0x3110, symBinAddr: 0x144E20, symSize: 0x180 }
  - { offset: 0x33FBBA, size: 0x8, addend: 0x0, symName: _ggml_metal_library_get_pipeline_im2col, symObjAddr: 0x3290, symBinAddr: 0x144FA0, symSize: 0x150 }
  - { offset: 0x33FD18, size: 0x8, addend: 0x0, symName: _ggml_metal_library_get_pipeline_conv_transpose_1d, symObjAddr: 0x33E0, symBinAddr: 0x1450F0, symSize: 0x1D0 }
  - { offset: 0x33FEC7, size: 0x8, addend: 0x0, symName: _ggml_metal_library_get_pipeline_upscale, symObjAddr: 0x35B0, symBinAddr: 0x1452C0, symSize: 0xC0 }
  - { offset: 0x33FFD2, size: 0x8, addend: 0x0, symName: _ggml_metal_library_get_pipeline_pad, symObjAddr: 0x3670, symBinAddr: 0x145380, symSize: 0xC0 }
  - { offset: 0x3400DD, size: 0x8, addend: 0x0, symName: _ggml_metal_library_get_pipeline_pad_reflect_1d, symObjAddr: 0x3730, symBinAddr: 0x145440, symSize: 0xC0 }
  - { offset: 0x3401E8, size: 0x8, addend: 0x0, symName: _ggml_metal_library_get_pipeline_arange, symObjAddr: 0x37F0, symBinAddr: 0x145500, symSize: 0xC0 }
  - { offset: 0x3402F3, size: 0x8, addend: 0x0, symName: _ggml_metal_library_get_pipeline_timestep_embedding, symObjAddr: 0x38B0, symBinAddr: 0x1455C0, symSize: 0xC0 }
  - { offset: 0x3403FE, size: 0x8, addend: 0x0, symName: _ggml_metal_library_get_pipeline_opt_step_adamw, symObjAddr: 0x3970, symBinAddr: 0x145680, symSize: 0xC0 }
  - { offset: 0x340509, size: 0x8, addend: 0x0, symName: _ggml_metal_library_get_pipeline_opt_step_sgd, symObjAddr: 0x3A30, symBinAddr: 0x145740, symSize: 0xC0 }
  - { offset: 0x340D77, size: 0x8, addend: 0x0, symName: __ZNKSt3__121__murmur2_or_cityhashImLm64EEclB8ne190102EPKvm, symObjAddr: 0x4200, symBinAddr: 0x145E30, symSize: 0x4B0 }
  - { offset: 0x341978, size: 0x8, addend: 0x0, symName: __ZNSt3__112__hash_tableINS_17__hash_value_typeINS_12basic_stringIcNS_11char_traitsIcEENS_9allocatorIcEEEEP19ggml_metal_pipelineEENS_22__unordered_map_hasherIS7_SA_NS_4hashIS7_EENS_8equal_toIS7_EELb1EEENS_21__unordered_map_equalIS7_SA_SF_SD_Lb1EEENS5_ISA_EEE11__do_rehashILb1EEEvm, symObjAddr: 0x46B0, symBinAddr: 0x1462E0, symSize: 0x230 }
  - { offset: 0x341E3D, size: 0x8, addend: 0x0, symName: __ZNSt3__110unique_ptrINS_11__hash_nodeINS_17__hash_value_typeINS_12basic_stringIcNS_11char_traitsIcEENS_9allocatorIcEEEEP19ggml_metal_pipelineEEPvEENS_22__hash_node_destructorINS6_ISD_EEEEED1B8ne190102Ev, symObjAddr: 0x41B0, symBinAddr: 0x145DE0, symSize: 0x50 }
  - { offset: 0x3443F4, size: 0x8, addend: 0x0, symName: _ggml_metal_cv_init, symObjAddr: 0x0, symBinAddr: 0x1467A0, symSize: 0x40 }
  - { offset: 0x3449CE, size: 0x8, addend: 0x0, symName: _ggml_metal_cv_init, symObjAddr: 0x0, symBinAddr: 0x1467A0, symSize: 0x40 }
  - { offset: 0x344A2D, size: 0x8, addend: 0x0, symName: _ggml_metal_cv_free, symObjAddr: 0x40, symBinAddr: 0x1467E0, symSize: 0x20 }
  - { offset: 0x344A7D, size: 0x8, addend: 0x0, symName: _ggml_metal_cv_set_int16, symObjAddr: 0x60, symBinAddr: 0x146800, symSize: 0x30 }
  - { offset: 0x344ADF, size: 0x8, addend: 0x0, symName: _ggml_metal_cv_set_int32, symObjAddr: 0x90, symBinAddr: 0x146830, symSize: 0x30 }
  - { offset: 0x344B40, size: 0x8, addend: 0x0, symName: _ggml_metal_cv_set_bool, symObjAddr: 0xC0, symBinAddr: 0x146860, symSize: 0x30 }
  - { offset: 0x344BA2, size: 0x8, addend: 0x0, symName: _ggml_metal_pipeline_init, symObjAddr: 0xF0, symBinAddr: 0x146890, symSize: 0x20 }
  - { offset: 0x344BD9, size: 0x8, addend: 0x0, symName: _ggml_metal_pipeline_free, symObjAddr: 0x110, symBinAddr: 0x1468B0, symSize: 0x20 }
  - { offset: 0x344C1A, size: 0x8, addend: 0x0, symName: _ggml_metal_pipeline_set_nsg, symObjAddr: 0x130, symBinAddr: 0x1468D0, symSize: 0x10 }
  - { offset: 0x344C4D, size: 0x8, addend: 0x0, symName: _ggml_metal_pipeline_get_nsg, symObjAddr: 0x140, symBinAddr: 0x1468E0, symSize: 0x10 }
  - { offset: 0x344C76, size: 0x8, addend: 0x0, symName: _ggml_metal_pipeline_set_nr0, symObjAddr: 0x150, symBinAddr: 0x1468F0, symSize: 0x10 }
  - { offset: 0x344CA9, size: 0x8, addend: 0x0, symName: _ggml_metal_pipeline_get_nr0, symObjAddr: 0x160, symBinAddr: 0x146900, symSize: 0x10 }
  - { offset: 0x344CD2, size: 0x8, addend: 0x0, symName: _ggml_metal_pipeline_set_nr1, symObjAddr: 0x170, symBinAddr: 0x146910, symSize: 0x10 }
  - { offset: 0x344D05, size: 0x8, addend: 0x0, symName: _ggml_metal_pipeline_get_nr1, symObjAddr: 0x180, symBinAddr: 0x146920, symSize: 0x10 }
  - { offset: 0x344D2E, size: 0x8, addend: 0x0, symName: _ggml_metal_pipeline_set_smem, symObjAddr: 0x190, symBinAddr: 0x146930, symSize: 0x10 }
  - { offset: 0x344D61, size: 0x8, addend: 0x0, symName: _ggml_metal_pipeline_get_smem, symObjAddr: 0x1A0, symBinAddr: 0x146940, symSize: 0x10 }
  - { offset: 0x344D8A, size: 0x8, addend: 0x0, symName: _ggml_metal_pipeline_max_theads_per_threadgroup, symObjAddr: 0x1B0, symBinAddr: 0x146950, symSize: 0x20 }
  - { offset: 0x344F3A, size: 0x8, addend: 0x0, symName: _ggml_metal_library_init, symObjAddr: 0x1D0, symBinAddr: 0x146970, symSize: 0x1F0 }
  - { offset: 0x3451A8, size: 0x8, addend: 0x0, symName: _ggml_metal_device_get_obj, symObjAddr: 0x3C0, symBinAddr: 0x146B60, symSize: 0x10 }
  - { offset: 0x3451C5, size: 0x8, addend: 0x0, symName: _ggml_metal_device_get_props, symObjAddr: 0x3D0, symBinAddr: 0x146B70, symSize: 0x10 }
  - { offset: 0x3451F0, size: 0x8, addend: 0x0, symName: _ggml_metal_library_free, symObjAddr: 0x3E0, symBinAddr: 0x146B80, symSize: 0x40 }
  - { offset: 0x345246, size: 0x8, addend: 0x0, symName: _ggml_metal_library_get_pipeline, symObjAddr: 0x420, symBinAddr: 0x146BC0, symSize: 0x10 }
  - { offset: 0x34533D, size: 0x8, addend: 0x0, symName: _ggml_metal_library_compile_pipeline, symObjAddr: 0x430, symBinAddr: 0x146BD0, symSize: 0x200 }
  - { offset: 0x3455F5, size: 0x8, addend: 0x0, symName: _ggml_metal_encoder_init, symObjAddr: 0x630, symBinAddr: 0x146DD0, symSize: 0x70 }
  - { offset: 0x3456A6, size: 0x8, addend: 0x0, symName: _ggml_metal_encoder_free, symObjAddr: 0x6A0, symBinAddr: 0x146E40, symSize: 0x20 }
  - { offset: 0x3456E9, size: 0x8, addend: 0x0, symName: _ggml_metal_encoder_debug_group_push, symObjAddr: 0x6C0, symBinAddr: 0x146E60, symSize: 0x40 }
  - { offset: 0x34574A, size: 0x8, addend: 0x0, symName: _ggml_metal_encoder_debug_group_pop, symObjAddr: 0x700, symBinAddr: 0x146EA0, symSize: 0x20 }
  - { offset: 0x34577F, size: 0x8, addend: 0x0, symName: _ggml_metal_encoder_set_pipeline, symObjAddr: 0x720, symBinAddr: 0x146EC0, symSize: 0x20 }
  - { offset: 0x3457C5, size: 0x8, addend: 0x0, symName: _ggml_metal_encoder_set_bytes, symObjAddr: 0x740, symBinAddr: 0x146EE0, symSize: 0x30 }
  - { offset: 0x34583E, size: 0x8, addend: 0x0, symName: _ggml_metal_encoder_set_buffer, symObjAddr: 0x770, symBinAddr: 0x146F10, symSize: 0x30 }
  - { offset: 0x3458A6, size: 0x8, addend: 0x0, symName: _ggml_metal_encoder_set_threadgroup_memory_size, symObjAddr: 0x7A0, symBinAddr: 0x146F40, symSize: 0x20 }
  - { offset: 0x34597D, size: 0x8, addend: 0x0, symName: _ggml_metal_encoder_dispatch_threadgroups, symObjAddr: 0x7C0, symBinAddr: 0x146F60, symSize: 0x70 }
  - { offset: 0x345A87, size: 0x8, addend: 0x0, symName: _ggml_metal_encoder_memory_barrier, symObjAddr: 0x830, symBinAddr: 0x146FD0, symSize: 0x20 }
  - { offset: 0x345AC3, size: 0x8, addend: 0x0, symName: _ggml_metal_encoder_end_encoding, symObjAddr: 0x850, symBinAddr: 0x146FF0, symSize: 0x20 }
  - { offset: 0x345AF8, size: 0x8, addend: 0x0, symName: _ggml_metal_device_init, symObjAddr: 0x870, symBinAddr: 0x147010, symSize: 0x720 }
  - { offset: 0x3461E5, size: 0x8, addend: 0x0, symName: _ggml_metal_device_free, symObjAddr: 0xF90, symBinAddr: 0x147730, symSize: 0x70 }
  - { offset: 0x346283, size: 0x8, addend: 0x0, symName: _ggml_metal_device_get_queue, symObjAddr: 0x1000, symBinAddr: 0x1477A0, symSize: 0x10 }
  - { offset: 0x3462A0, size: 0x8, addend: 0x0, symName: _ggml_metal_device_get_library, symObjAddr: 0x1010, symBinAddr: 0x1477B0, symSize: 0x10 }
  - { offset: 0x3462CB, size: 0x8, addend: 0x0, symName: _ggml_metal_device_get_memory, symObjAddr: 0x1020, symBinAddr: 0x1477C0, symSize: 0x60 }
  - { offset: 0x34632E, size: 0x8, addend: 0x0, symName: _ggml_metal_device_supports_op, symObjAddr: 0x1080, symBinAddr: 0x147820, symSize: 0x4C0 }
  - { offset: 0x34662A, size: 0x8, addend: 0x0, symName: _ggml_metal_buffer_init, symObjAddr: 0x1540, symBinAddr: 0x147CE0, symSize: 0x230 }
  - { offset: 0x346878, size: 0x8, addend: 0x0, symName: _ggml_metal_buffer_rset_init, symObjAddr: 0x1770, symBinAddr: 0x147F10, symSize: 0x170 }
  - { offset: 0x3469AA, size: 0x8, addend: 0x0, symName: _ggml_metal_buffer_map, symObjAddr: 0x18E0, symBinAddr: 0x148080, symSize: 0x310 }
  - { offset: 0x346D09, size: 0x8, addend: 0x0, symName: _ggml_metal_buffer_free, symObjAddr: 0x1BF0, symBinAddr: 0x148390, symSize: 0xC0 }
  - { offset: 0x346DBD, size: 0x8, addend: 0x0, symName: _ggml_metal_buffer_get_base, symObjAddr: 0x1CB0, symBinAddr: 0x148450, symSize: 0x10 }
  - { offset: 0x346DE8, size: 0x8, addend: 0x0, symName: _ggml_metal_buffer_is_shared, symObjAddr: 0x1CC0, symBinAddr: 0x148460, symSize: 0x10 }
  - { offset: 0x346EA0, size: 0x8, addend: 0x0, symName: _ggml_metal_buffer_memset_tensor, symObjAddr: 0x1CD0, symBinAddr: 0x148470, symSize: 0x170 }
  - { offset: 0x347095, size: 0x8, addend: 0x0, symName: _ggml_metal_buffer_get_id, symObjAddr: 0x1E40, symBinAddr: 0x1485E0, symSize: 0xA0 }
  - { offset: 0x347137, size: 0x8, addend: 0x0, symName: _ggml_metal_buffer_set_tensor, symObjAddr: 0x1EE0, symBinAddr: 0x148680, symSize: 0x210 }
  - { offset: 0x3474B8, size: 0x8, addend: 0x0, symName: ___ggml_metal_buffer_set_tensor_block_invoke, symObjAddr: 0x20F0, symBinAddr: 0x148890, symSize: 0x10 }
  - { offset: 0x347524, size: 0x8, addend: 0x0, symName: ___copy_helper_block_e8_32o, symObjAddr: 0x2100, symBinAddr: 0x1488A0, symSize: 0x20 }
  - { offset: 0x34754D, size: 0x8, addend: 0x0, symName: ___destroy_helper_block_e8_32o, symObjAddr: 0x2120, symBinAddr: 0x1488C0, symSize: 0x20 }
  - { offset: 0x34756C, size: 0x8, addend: 0x0, symName: _ggml_metal_buffer_get_tensor, symObjAddr: 0x2140, symBinAddr: 0x1488E0, symSize: 0x1C0 }
  - { offset: 0x3477B2, size: 0x8, addend: 0x0, symName: _ggml_metal_buffer_clear, symObjAddr: 0x2300, symBinAddr: 0x148AA0, symSize: 0xC4 }
  - { offset: 0x349AE8, size: 0x8, addend: 0x0, symName: _ggml_metal_op_init, symObjAddr: 0x0, symBinAddr: 0x148B70, symSize: 0xA0 }
  - { offset: 0x349C54, size: 0x8, addend: 0x0, symName: __ZN13ggml_metal_opC2EP17ggml_metal_devicePvP11ggml_cgraphiibbbii, symObjAddr: 0x9AE0, symBinAddr: 0x152650, symSize: 0x2D0 }
  - { offset: 0x34A77C, size: 0x8, addend: 0x0, symName: _ggml_metal_op_free, symObjAddr: 0xA0, symBinAddr: 0x148C10, symSize: 0x60 }
  - { offset: 0x34A9BD, size: 0x8, addend: 0x0, symName: _ggml_metal_op_n_nodes, symObjAddr: 0x100, symBinAddr: 0x148C70, symSize: 0x20 }
  - { offset: 0x34AD2E, size: 0x8, addend: 0x0, symName: _ggml_metal_op_encode, symObjAddr: 0x120, symBinAddr: 0x148C90, symSize: 0xBB0 }
  - { offset: 0x34B9A8, size: 0x8, addend: 0x0, symName: _ggml_metal_op_unary, symObjAddr: 0x19C0, symBinAddr: 0x14A530, symSize: 0x110 }
  - { offset: 0x34BCA1, size: 0x8, addend: 0x0, symName: _ggml_metal_op_bin, symObjAddr: 0x6DF0, symBinAddr: 0x14F960, symSize: 0x870 }
  - { offset: 0x34C5A1, size: 0x8, addend: 0x0, symName: _ggml_metal_op_cpy, symObjAddr: 0x3840, symBinAddr: 0x14C3B0, symSize: 0x450 }
  - { offset: 0x34C99B, size: 0x8, addend: 0x0, symName: _ggml_metal_op_norm, symObjAddr: 0x7B60, symBinAddr: 0x1506D0, symSize: 0x780 }
  - { offset: 0x34D1EE, size: 0x8, addend: 0x0, symName: _ggml_metal_op_sum_rows, symObjAddr: 0x1EB0, symBinAddr: 0x14AA20, symSize: 0x250 }
  - { offset: 0x34D5A0, size: 0x8, addend: 0x0, symName: _ggml_metal_op_rwkv, symObjAddr: 0x3510, symBinAddr: 0x14C080, symSize: 0x330 }
  - { offset: 0x34DBA9, size: 0x8, addend: 0x0, symName: _ggml_metal_op_opt_step_sgd, symObjAddr: 0x9940, symBinAddr: 0x1524B0, symSize: 0x1A0 }
  - { offset: 0x34DF7E, size: 0x8, addend: 0x0, symName: _ggml_metal_op_arange, symObjAddr: 0x9070, symBinAddr: 0x151BE0, symSize: 0x100 }
  - { offset: 0x34E1FE, size: 0x8, addend: 0x0, symName: _ggml_metal_op_ssm_scan, symObjAddr: 0x2D80, symBinAddr: 0x14B8F0, symSize: 0x790 }
  - { offset: 0x34EB82, size: 0x8, addend: 0x0, symName: _ggml_metal_op_leaky_relu, symObjAddr: 0x95F0, symBinAddr: 0x152160, symSize: 0x130 }
  - { offset: 0x34EECC, size: 0x8, addend: 0x0, symName: _ggml_metal_op_pad_reflect_1d, symObjAddr: 0x8E60, symBinAddr: 0x1519D0, symSize: 0x210 }
  - { offset: 0x34F1F6, size: 0x8, addend: 0x0, symName: _ggml_metal_op_group_norm, symObjAddr: 0x79D0, symBinAddr: 0x150540, symSize: 0x190 }
  - { offset: 0x34F595, size: 0x8, addend: 0x0, symName: _ggml_metal_op_pool_2d, symObjAddr: 0x3C90, symBinAddr: 0x14C800, symSize: 0x1A0 }
  - { offset: 0x34F9C2, size: 0x8, addend: 0x0, symName: _ggml_metal_op_im2col, symObjAddr: 0x8600, symBinAddr: 0x151170, symSize: 0x220 }
  - { offset: 0x34FE44, size: 0x8, addend: 0x0, symName: _ggml_metal_op_upscale, symObjAddr: 0x89B0, symBinAddr: 0x151520, symSize: 0x2C0 }
  - { offset: 0x3501A7, size: 0x8, addend: 0x0, symName: _ggml_metal_op_pad, symObjAddr: 0x8C70, symBinAddr: 0x1517E0, symSize: 0x1F0 }
  - { offset: 0x3504D1, size: 0x8, addend: 0x0, symName: _ggml_metal_op_concat, symObjAddr: 0xCD0, symBinAddr: 0x149840, symSize: 0x210 }
  - { offset: 0x3508E4, size: 0x8, addend: 0x0, symName: _ggml_metal_op_conv_transpose_1d, symObjAddr: 0x8820, symBinAddr: 0x151390, symSize: 0x190 }
  - { offset: 0x350D28, size: 0x8, addend: 0x0, symName: _ggml_metal_op_acc, symObjAddr: 0x10D0, symBinAddr: 0x149C40, symSize: 0x690 }
  - { offset: 0x351426, size: 0x8, addend: 0x0, symName: _ggml_metal_op_repeat, symObjAddr: 0xEE0, symBinAddr: 0x149A50, symSize: 0x1F0 }
  - { offset: 0x35176E, size: 0x8, addend: 0x0, symName: _ggml_metal_op_mul_mat_id, symObjAddr: 0x47F0, symBinAddr: 0x14D360, symSize: 0x9D0 }
  - { offset: 0x352302, size: 0x8, addend: 0x0, symName: _ggml_metal_op_flash_attn_ext, symObjAddr: 0x57C0, symBinAddr: 0x14E330, symSize: 0x1630 }
  - { offset: 0x3536BD, size: 0x8, addend: 0x0, symName: _ggml_metal_op_bin, symObjAddr: 0x6DF0, symBinAddr: 0x14F960, symSize: 0x870 }
  - { offset: 0x3536D1, size: 0x8, addend: 0x0, symName: _ggml_metal_op_sum, symObjAddr: 0x1D90, symBinAddr: 0x14A900, symSize: 0x120 }
  - { offset: 0x35393D, size: 0x8, addend: 0x0, symName: _ggml_metal_op_soft_max, symObjAddr: 0x26F0, symBinAddr: 0x14B260, symSize: 0x450 }
  - { offset: 0x353F41, size: 0x8, addend: 0x0, symName: _ggml_metal_op_rope, symObjAddr: 0x82E0, symBinAddr: 0x150E50, symSize: 0x320 }
  - { offset: 0x3544C3, size: 0x8, addend: 0x0, symName: _ggml_metal_op_add_id, symObjAddr: 0x51C0, symBinAddr: 0x14DD30, symSize: 0x350 }
  - { offset: 0x3549FD, size: 0x8, addend: 0x0, symName: _ggml_metal_op_get_rows, symObjAddr: 0x2100, symBinAddr: 0x14AC70, symSize: 0x2A0 }
  - { offset: 0x354E39, size: 0x8, addend: 0x0, symName: _ggml_metal_op_set_rows, symObjAddr: 0x23A0, symBinAddr: 0x14AF10, symSize: 0x350 }
  - { offset: 0x35529C, size: 0x8, addend: 0x0, symName: _ggml_metal_op_clamp, symObjAddr: 0x1890, symBinAddr: 0x14A400, symSize: 0x130 }
  - { offset: 0x3555EF, size: 0x8, addend: 0x0, symName: _ggml_metal_op_glu, symObjAddr: 0x1AD0, symBinAddr: 0x14A640, symSize: 0x2C0 }
  - { offset: 0x355AFD, size: 0x8, addend: 0x0, symName: _ggml_metal_op_l2_norm, symObjAddr: 0x7810, symBinAddr: 0x150380, symSize: 0x1C0 }
  - { offset: 0x355EDC, size: 0x8, addend: 0x0, symName: _ggml_metal_op_argmax, symObjAddr: 0x92D0, symBinAddr: 0x151E40, symSize: 0x1B0 }
  - { offset: 0x356284, size: 0x8, addend: 0x0, symName: _ggml_metal_op_scale, symObjAddr: 0x1760, symBinAddr: 0x14A2D0, symSize: 0x130 }
  - { offset: 0x3565D7, size: 0x8, addend: 0x0, symName: _ggml_metal_op_mul_mat, symObjAddr: 0x3E30, symBinAddr: 0x14C9A0, symSize: 0x950 }
  - { offset: 0x356F60, size: 0x8, addend: 0x0, symName: _ggml_metal_op_timestep_embedding, symObjAddr: 0x9170, symBinAddr: 0x151CE0, symSize: 0x160 }
  - { offset: 0x3572D5, size: 0x8, addend: 0x0, symName: _ggml_metal_op_ssm_conv, symObjAddr: 0x2B40, symBinAddr: 0x14B6B0, symSize: 0x240 }
  - { offset: 0x3576D5, size: 0x8, addend: 0x0, symName: _ggml_metal_op_argsort, symObjAddr: 0x9480, symBinAddr: 0x151FF0, symSize: 0x170 }
  - { offset: 0x357A55, size: 0x8, addend: 0x0, symName: _ggml_metal_op_opt_step_adamw, symObjAddr: 0x9720, symBinAddr: 0x152290, symSize: 0x220 }
  - { offset: 0x3583A1, size: 0x8, addend: 0x0, symName: _ggml_metal_op_mul_mat_id_extra_tpe, symObjAddr: 0x4780, symBinAddr: 0x14D2F0, symSize: 0x30 }
  - { offset: 0x3583F2, size: 0x8, addend: 0x0, symName: _ggml_metal_op_mul_mat_id_extra_ids, symObjAddr: 0x47B0, symBinAddr: 0x14D320, symSize: 0x40 }
  - { offset: 0x3584EA, size: 0x8, addend: 0x0, symName: _ggml_metal_op_flash_attn_ext_use_vec, symObjAddr: 0x5510, symBinAddr: 0x14E080, symSize: 0x20 }
  - { offset: 0x358548, size: 0x8, addend: 0x0, symName: _ggml_metal_op_flash_attn_ext_extra_pad, symObjAddr: 0x5530, symBinAddr: 0x14E0A0, symSize: 0x140 }
  - { offset: 0x3587AB, size: 0x8, addend: 0x0, symName: _ggml_metal_op_flash_attn_ext_extra_blk, symObjAddr: 0x5670, symBinAddr: 0x14E1E0, symSize: 0xB0 }
  - { offset: 0x35888F, size: 0x8, addend: 0x0, symName: _ggml_metal_op_flash_attn_ext_extra_tmp, symObjAddr: 0x5720, symBinAddr: 0x14E290, symSize: 0xA0 }
  - { offset: 0x358BF7, size: 0x8, addend: 0x0, symName: __ZNK13ggml_metal_op8can_fuseEiPK7ggml_opi, symObjAddr: 0x7660, symBinAddr: 0x1501D0, symSize: 0x1B0 }
  - { offset: 0x35D30C, size: 0x8, addend: 0x0, symName: _ggml_backend_metal_init, symObjAddr: 0x0, symBinAddr: 0x152920, symSize: 0x210 }
  - { offset: 0x35D341, size: 0x8, addend: 0x0, symName: __ZL20ggml_backend_metal_i, symObjAddr: 0x1378, symBinAddr: 0x181088, symSize: 0x0 }
  - { offset: 0x35D3B2, size: 0x8, addend: 0x0, symName: __ZL24ggml_backend_metal_reg_i, symObjAddr: 0x13E8, symBinAddr: 0x1810F8, symSize: 0x0 }
  - { offset: 0x35D3CD, size: 0x8, addend: 0x0, symName: __ZL29g_ggml_backend_metal_features, symObjAddr: 0x1520, symBinAddr: 0x1823E0, symSize: 0x0 }
  - { offset: 0x35D3F4, size: 0x8, addend: 0x0, symName: __ZL16g_ggml_metal_reg, symObjAddr: 0x11D98, symBinAddr: 0x204A68, symSize: 0x0 }
  - { offset: 0x35D40F, size: 0x8, addend: 0x0, symName: __ZL27ggml_backend_metal_device_i, symObjAddr: 0x1408, symBinAddr: 0x181118, symSize: 0x0 }
  - { offset: 0x35D428, size: 0x8, addend: 0x0, symName: __ZL34ggml_backend_metal_buffer_shared_i, symObjAddr: 0x1480, symBinAddr: 0x181190, symSize: 0x0 }
  - { offset: 0x35D441, size: 0x8, addend: 0x0, symName: __ZL35ggml_backend_metal_buffer_private_i, symObjAddr: 0x14C8, symBinAddr: 0x1811D8, symSize: 0x0 }
  - { offset: 0x35D45A, size: 0x8, addend: 0x0, symName: __ZL19g_ggml_metal_device, symObjAddr: 0x11DC8, symBinAddr: 0x204A98, symSize: 0x0 }
  - { offset: 0x35D507, size: 0x8, addend: 0x0, symName: _ggml_backend_metal_init, symObjAddr: 0x0, symBinAddr: 0x152920, symSize: 0x210 }
  - { offset: 0x35D70C, size: 0x8, addend: 0x0, symName: _ggml_backend_metal_reg, symObjAddr: 0x210, symBinAddr: 0x152B30, symSize: 0x110 }
  - { offset: 0x35D72F, size: 0x8, addend: 0x0, symName: _ggml_backend_is_metal, symObjAddr: 0x320, symBinAddr: 0x152C40, symSize: 0x20 }
  - { offset: 0x35D75C, size: 0x8, addend: 0x0, symName: _ggml_backend_metal_set_abort_callback, symObjAddr: 0x340, symBinAddr: 0x152C60, symSize: 0x70 }
  - { offset: 0x35D823, size: 0x8, addend: 0x0, symName: _ggml_backend_metal_supports_family, symObjAddr: 0x3B0, symBinAddr: 0x152CD0, symSize: 0x60 }
  - { offset: 0x35D8DD, size: 0x8, addend: 0x0, symName: _ggml_backend_metal_capture_next_compute, symObjAddr: 0x410, symBinAddr: 0x152D30, symSize: 0x60 }
  - { offset: 0x35D978, size: 0x8, addend: 0x0, symName: __ZL23ggml_backend_metal_nameP12ggml_backend, symObjAddr: 0x470, symBinAddr: 0x152D90, symSize: 0x10 }
  - { offset: 0x35D9A4, size: 0x8, addend: 0x0, symName: __ZL23ggml_backend_metal_freeP12ggml_backend, symObjAddr: 0x480, symBinAddr: 0x152DA0, symSize: 0x30 }
  - { offset: 0x35DA43, size: 0x8, addend: 0x0, symName: __ZL35ggml_backend_metal_set_tensor_asyncP12ggml_backendP11ggml_tensorPKvmm, symObjAddr: 0x4B0, symBinAddr: 0x152DD0, symSize: 0x20 }
  - { offset: 0x35DB0D, size: 0x8, addend: 0x0, symName: __ZL35ggml_backend_metal_get_tensor_asyncP12ggml_backendPK11ggml_tensorPvmm, symObjAddr: 0x4D0, symBinAddr: 0x152DF0, symSize: 0x20 }
  - { offset: 0x35DBD7, size: 0x8, addend: 0x0, symName: __ZL35ggml_backend_metal_cpy_tensor_asyncP12ggml_backendS0_PK11ggml_tensorPS1_, symObjAddr: 0x4F0, symBinAddr: 0x152E10, symSize: 0x10 }
  - { offset: 0x35DC27, size: 0x8, addend: 0x0, symName: __ZL30ggml_backend_metal_synchronizeP12ggml_backend, symObjAddr: 0x500, symBinAddr: 0x152E20, symSize: 0x20 }
  - { offset: 0x35DC73, size: 0x8, addend: 0x0, symName: __ZL32ggml_backend_metal_graph_computeP12ggml_backendP11ggml_cgraph, symObjAddr: 0x520, symBinAddr: 0x152E40, symSize: 0x20 }
  - { offset: 0x35DCF2, size: 0x8, addend: 0x0, symName: __ZL33ggml_backend_metal_graph_optimizeP12ggml_backendP11ggml_cgraph, symObjAddr: 0x540, symBinAddr: 0x152E60, symSize: 0x20 }
  - { offset: 0x35DD68, size: 0x8, addend: 0x0, symName: __ZL31ggml_backend_metal_reg_get_nameP16ggml_backend_reg, symObjAddr: 0x560, symBinAddr: 0x152E80, symSize: 0x10 }
  - { offset: 0x35DD94, size: 0x8, addend: 0x0, symName: __ZL35ggml_backend_metal_reg_device_countP16ggml_backend_reg, symObjAddr: 0x570, symBinAddr: 0x152E90, symSize: 0x10 }
  - { offset: 0x35DDC0, size: 0x8, addend: 0x0, symName: __ZL33ggml_backend_metal_reg_device_getP16ggml_backend_regm, symObjAddr: 0x580, symBinAddr: 0x152EA0, symSize: 0x40 }
  - { offset: 0x35DE14, size: 0x8, addend: 0x0, symName: __ZL35ggml_backend_metal_get_proc_addressP16ggml_backend_regPKc, symObjAddr: 0x5C0, symBinAddr: 0x152EE0, symSize: 0x30 }
  - { offset: 0x35DE7F, size: 0x8, addend: 0x0, symName: __ZL31ggml_backend_metal_get_featuresP16ggml_backend_reg, symObjAddr: 0x5F0, symBinAddr: 0x152F10, symSize: 0x10 }
  - { offset: 0x35DEAB, size: 0x8, addend: 0x0, symName: __ZL34ggml_backend_metal_device_get_nameP19ggml_backend_device, symObjAddr: 0x600, symBinAddr: 0x152F20, symSize: 0x10 }
  - { offset: 0x35DED7, size: 0x8, addend: 0x0, symName: __ZL41ggml_backend_metal_device_get_descriptionP19ggml_backend_device, symObjAddr: 0x610, symBinAddr: 0x152F30, symSize: 0x20 }
  - { offset: 0x35DF2B, size: 0x8, addend: 0x0, symName: __ZL36ggml_backend_metal_device_get_memoryP19ggml_backend_devicePmS1_, symObjAddr: 0x630, symBinAddr: 0x152F50, symSize: 0x20 }
  - { offset: 0x35DF9A, size: 0x8, addend: 0x0, symName: __ZL34ggml_backend_metal_device_get_typeP19ggml_backend_device, symObjAddr: 0x650, symBinAddr: 0x152F70, symSize: 0x10 }
  - { offset: 0x35E032, size: 0x8, addend: 0x0, symName: __ZL35ggml_backend_metal_device_get_propsP19ggml_backend_deviceP22ggml_backend_dev_props, symObjAddr: 0x660, symBinAddr: 0x152F80, symSize: 0x50 }
  - { offset: 0x35E0FD, size: 0x8, addend: 0x0, symName: __ZL30ggml_backend_metal_device_initP19ggml_backend_devicePKc, symObjAddr: 0x6B0, symBinAddr: 0x152FD0, symSize: 0x100 }
  - { offset: 0x35E234, size: 0x8, addend: 0x0, symName: __ZL41ggml_backend_metal_device_get_buffer_typeP19ggml_backend_device, symObjAddr: 0x7B0, symBinAddr: 0x1530D0, symSize: 0x30 }
  - { offset: 0x35E295, size: 0x8, addend: 0x0, symName: __ZL39ggml_backend_metal_device_buffer_mappedP19ggml_backend_devicePvmm, symObjAddr: 0x7E0, symBinAddr: 0x153100, symSize: 0x70 }
  - { offset: 0x35E39A, size: 0x8, addend: 0x0, symName: __ZL37ggml_backend_metal_device_supports_opP19ggml_backend_devicePK11ggml_tensor, symObjAddr: 0x850, symBinAddr: 0x153170, symSize: 0x20 }
  - { offset: 0x35E419, size: 0x8, addend: 0x0, symName: __ZL39ggml_backend_metal_device_supports_buftP19ggml_backend_deviceP24ggml_backend_buffer_type, symObjAddr: 0x870, symBinAddr: 0x153190, symSize: 0x40 }
  - { offset: 0x35E473, size: 0x8, addend: 0x0, symName: __ZL36ggml_backend_metal_device_offload_opP19ggml_backend_devicePK11ggml_tensor, symObjAddr: 0x8B0, symBinAddr: 0x1531D0, symSize: 0x30 }
  - { offset: 0x35E4DB, size: 0x8, addend: 0x0, symName: __ZL46ggml_backend_metal_buffer_type_shared_get_nameP24ggml_backend_buffer_type, symObjAddr: 0x8E0, symBinAddr: 0x153200, symSize: 0x10 }
  - { offset: 0x35E55C, size: 0x8, addend: 0x0, symName: __ZL50ggml_backend_metal_buffer_type_shared_alloc_bufferP24ggml_backend_buffer_typem, symObjAddr: 0x8F0, symBinAddr: 0x153210, symSize: 0x90 }
  - { offset: 0x35E65B, size: 0x8, addend: 0x0, symName: __ZL51ggml_backend_metal_buffer_type_shared_get_alignmentP24ggml_backend_buffer_type, symObjAddr: 0x980, symBinAddr: 0x1532A0, symSize: 0x10 }
  - { offset: 0x35E685, size: 0x8, addend: 0x0, symName: __ZL50ggml_backend_metal_buffer_type_shared_get_max_sizeP24ggml_backend_buffer_type, symObjAddr: 0x990, symBinAddr: 0x1532B0, symSize: 0x20 }
  - { offset: 0x35E706, size: 0x8, addend: 0x0, symName: __ZL52ggml_backend_metal_buffer_type_shared_get_alloc_sizeP24ggml_backend_buffer_typePK11ggml_tensor, symObjAddr: 0x9B0, symBinAddr: 0x1532D0, symSize: 0x80 }
  - { offset: 0x35E85A, size: 0x8, addend: 0x0, symName: __ZL45ggml_backend_metal_buffer_type_shared_is_hostP24ggml_backend_buffer_type, symObjAddr: 0xA30, symBinAddr: 0x153350, symSize: 0x10 }
  - { offset: 0x35E884, size: 0x8, addend: 0x0, symName: __ZL44ggml_backend_metal_buffer_shared_free_bufferP19ggml_backend_buffer, symObjAddr: 0xA40, symBinAddr: 0x153360, symSize: 0x50 }
  - { offset: 0x35E905, size: 0x8, addend: 0x0, symName: __ZL41ggml_backend_metal_buffer_shared_get_baseP19ggml_backend_buffer, symObjAddr: 0xA90, symBinAddr: 0x1533B0, symSize: 0x50 }
  - { offset: 0x35E990, size: 0x8, addend: 0x0, symName: __ZL46ggml_backend_metal_buffer_shared_memset_tensorP19ggml_backend_bufferP11ggml_tensorhmm, symObjAddr: 0xAE0, symBinAddr: 0x153400, symSize: 0x70 }
  - { offset: 0x35EA66, size: 0x8, addend: 0x0, symName: __ZL43ggml_backend_metal_buffer_shared_set_tensorP19ggml_backend_bufferP11ggml_tensorPKvmm, symObjAddr: 0xB50, symBinAddr: 0x153470, symSize: 0x70 }
  - { offset: 0x35EB3C, size: 0x8, addend: 0x0, symName: __ZL43ggml_backend_metal_buffer_shared_get_tensorP19ggml_backend_bufferPK11ggml_tensorPvmm, symObjAddr: 0xBC0, symBinAddr: 0x1534E0, symSize: 0x70 }
  - { offset: 0x35EC12, size: 0x8, addend: 0x0, symName: __ZL43ggml_backend_metal_buffer_shared_cpy_tensorP19ggml_backend_bufferPK11ggml_tensorPS1_, symObjAddr: 0xC30, symBinAddr: 0x153550, symSize: 0x40 }
  - { offset: 0x35EC8B, size: 0x8, addend: 0x0, symName: __ZL38ggml_backend_metal_buffer_shared_clearP19ggml_backend_bufferh, symObjAddr: 0xC70, symBinAddr: 0x153590, symSize: 0x50 }
  - { offset: 0x35ED22, size: 0x8, addend: 0x0, symName: __ZL45ggml_backend_metal_buffer_private_free_bufferP19ggml_backend_buffer, symObjAddr: 0xCC0, symBinAddr: 0x1535E0, symSize: 0x50 }
  - { offset: 0x35ED97, size: 0x8, addend: 0x0, symName: __ZL42ggml_backend_metal_buffer_private_get_baseP19ggml_backend_buffer, symObjAddr: 0xD10, symBinAddr: 0x153630, symSize: 0x50 }
  - { offset: 0x35EE10, size: 0x8, addend: 0x0, symName: __ZL47ggml_backend_metal_buffer_private_memset_tensorP19ggml_backend_bufferP11ggml_tensorhmm, symObjAddr: 0xD60, symBinAddr: 0x153680, symSize: 0x70 }
  - { offset: 0x35EEC5, size: 0x8, addend: 0x0, symName: __ZL44ggml_backend_metal_buffer_private_set_tensorP19ggml_backend_bufferP11ggml_tensorPKvmm, symObjAddr: 0xDD0, symBinAddr: 0x1536F0, symSize: 0x70 }
  - { offset: 0x35EF7A, size: 0x8, addend: 0x0, symName: __ZL44ggml_backend_metal_buffer_private_get_tensorP19ggml_backend_bufferPK11ggml_tensorPvmm, symObjAddr: 0xE40, symBinAddr: 0x153760, symSize: 0x70 }
  - { offset: 0x35F030, size: 0x8, addend: 0x0, symName: __ZL44ggml_backend_metal_buffer_private_cpy_tensorP19ggml_backend_bufferPK11ggml_tensorPS1_, symObjAddr: 0xEB0, symBinAddr: 0x1537D0, symSize: 0x40 }
  - { offset: 0x35F0AA, size: 0x8, addend: 0x0, symName: __ZL39ggml_backend_metal_buffer_private_clearP19ggml_backend_bufferh, symObjAddr: 0xEF0, symBinAddr: 0x153810, symSize: 0x50 }
  - { offset: 0x35F130, size: 0x8, addend: 0x0, symName: __ZL47ggml_backend_metal_buffer_type_private_get_nameP24ggml_backend_buffer_type, symObjAddr: 0xF40, symBinAddr: 0x153860, symSize: 0x10 }
  - { offset: 0x35F15C, size: 0x8, addend: 0x0, symName: __ZL51ggml_backend_metal_buffer_type_private_alloc_bufferP24ggml_backend_buffer_typem, symObjAddr: 0xF50, symBinAddr: 0x153870, symSize: 0x90 }
  - { offset: 0x35F231, size: 0x8, addend: 0x0, symName: __ZL52ggml_backend_metal_buffer_type_private_get_alignmentP24ggml_backend_buffer_type, symObjAddr: 0xFE0, symBinAddr: 0x153900, symSize: 0x10 }
  - { offset: 0x35F25D, size: 0x8, addend: 0x0, symName: __ZL51ggml_backend_metal_buffer_type_private_get_max_sizeP24ggml_backend_buffer_type, symObjAddr: 0xFF0, symBinAddr: 0x153910, symSize: 0x20 }
  - { offset: 0x35F2AD, size: 0x8, addend: 0x0, symName: __ZL53ggml_backend_metal_buffer_type_private_get_alloc_sizeP24ggml_backend_buffer_typePK11ggml_tensor, symObjAddr: 0x1010, symBinAddr: 0x153930, symSize: 0x80 }
  - { offset: 0x35F398, size: 0x8, addend: 0x0, symName: __ZL46ggml_backend_metal_buffer_type_private_is_hostP24ggml_backend_buffer_type, symObjAddr: 0x1090, symBinAddr: 0x1539B0, symSize: 0x10 }
  - { offset: 0x35F3C4, size: 0x8, addend: 0x0, symName: __ZL46ggml_backend_metal_buffer_type_mapped_get_nameP24ggml_backend_buffer_type, symObjAddr: 0x10A0, symBinAddr: 0x1539C0, symSize: 0x10 }
  - { offset: 0x35F3F0, size: 0x8, addend: 0x0, symName: __ZL50ggml_backend_metal_buffer_type_mapped_alloc_bufferP24ggml_backend_buffer_typem, symObjAddr: 0x10B0, symBinAddr: 0x1539D0, symSize: 0x90 }
  - { offset: 0x35F4C5, size: 0x8, addend: 0x0, symName: __ZL51ggml_backend_metal_buffer_type_mapped_get_alignmentP24ggml_backend_buffer_type, symObjAddr: 0x1140, symBinAddr: 0x153A60, symSize: 0x10 }
  - { offset: 0x35F4F1, size: 0x8, addend: 0x0, symName: __ZL50ggml_backend_metal_buffer_type_mapped_get_max_sizeP24ggml_backend_buffer_type, symObjAddr: 0x1150, symBinAddr: 0x153A70, symSize: 0x20 }
  - { offset: 0x35F541, size: 0x8, addend: 0x0, symName: __ZL52ggml_backend_metal_buffer_type_mapped_get_alloc_sizeP24ggml_backend_buffer_typePK11ggml_tensor, symObjAddr: 0x1170, symBinAddr: 0x153A90, symSize: 0x80 }
  - { offset: 0x35F62C, size: 0x8, addend: 0x0, symName: __ZL45ggml_backend_metal_buffer_type_mapped_is_hostP24ggml_backend_buffer_type, symObjAddr: 0x11F0, symBinAddr: 0x153B10, symSize: 0x8 }
  - { offset: 0x36224B, size: 0x8, addend: 0x0, symName: _ggml_backend_blas_reg, symObjAddr: 0xD0, symBinAddr: 0x153BF0, symSize: 0x10 }
  - { offset: 0x362273, size: 0x8, addend: 0x0, symName: __ZZ21ggml_backend_blas_regE21ggml_backend_blas_reg, symObjAddr: 0x1FC0, symBinAddr: 0x1824C0, symSize: 0x0 }
  - { offset: 0x3622E8, size: 0x8, addend: 0x0, symName: __ZL14blas_backend_i, symObjAddr: 0x1C80, symBinAddr: 0x181220, symSize: 0x0 }
  - { offset: 0x3622F6, size: 0x8, addend: 0x0, symName: __ZL32ggml_backend_blas_reg_get_deviceP16ggml_backend_regm, symObjAddr: 0x180, symBinAddr: 0x153CA0, symSize: 0x50 }
  - { offset: 0x362322, size: 0x8, addend: 0x0, symName: __ZZL32ggml_backend_blas_reg_get_deviceP16ggml_backend_regmE24ggml_backend_blas_device, symObjAddr: 0x39358, symBinAddr: 0x204B20, symSize: 0x0 }
  - { offset: 0x362381, size: 0x8, addend: 0x0, symName: __ZL26ggml_backend_blas_device_i, symObjAddr: 0x1D38, symBinAddr: 0x1812D8, symSize: 0x0 }
  - { offset: 0x365CBA, size: 0x8, addend: 0x0, symName: '__ZNSt3__114__thread_proxyB8ne190102INS_5tupleIJNS_10unique_ptrINS_15__thread_structENS_14default_deleteIS3_EEEEMNS_19__async_assoc_stateIvNS_12__async_funcIZL25ggml_backend_blas_mul_matP25ggml_backend_blas_contextP11ggml_tensorE3$_0JEEEEEFvvEPSF_EEEEEPvSK_', symObjAddr: 0x1740, symBinAddr: 0x155190, symSize: 0x90 }
  - { offset: 0x367459, size: 0x8, addend: 0x0, symName: _ggml_backend_blas_init, symObjAddr: 0x0, symBinAddr: 0x153B20, symSize: 0xD0 }
  - { offset: 0x3674EB, size: 0x8, addend: 0x0, symName: _ggml_backend_is_blas, symObjAddr: 0xE0, symBinAddr: 0x153C00, symSize: 0x20 }
  - { offset: 0x36754B, size: 0x8, addend: 0x0, symName: _ggml_backend_blas_set_n_threads, symObjAddr: 0x100, symBinAddr: 0x153C20, symSize: 0x60 }
  - { offset: 0x3675F6, size: 0x8, addend: 0x0, symName: __ZL30ggml_backend_blas_reg_get_nameP16ggml_backend_reg, symObjAddr: 0x160, symBinAddr: 0x153C80, symSize: 0x10 }
  - { offset: 0x367622, size: 0x8, addend: 0x0, symName: __ZL38ggml_backend_blas_reg_get_device_countP16ggml_backend_reg, symObjAddr: 0x170, symBinAddr: 0x153C90, symSize: 0x10 }
  - { offset: 0x36764E, size: 0x8, addend: 0x0, symName: __ZL32ggml_backend_blas_reg_get_deviceP16ggml_backend_regm.cold.1, symObjAddr: 0x1B30, symBinAddr: 0x156350, symSize: 0x55 }
  - { offset: 0x367666, size: 0x8, addend: 0x0, symName: __ZL34ggml_backend_blas_get_proc_addressP16ggml_backend_regPKc, symObjAddr: 0x1D0, symBinAddr: 0x153CF0, symSize: 0x30 }
  - { offset: 0x3676D1, size: 0x8, addend: 0x0, symName: __ZL26ggml_backend_blas_get_nameP12ggml_backend, symObjAddr: 0x210, symBinAddr: 0x153D20, symSize: 0x10 }
  - { offset: 0x36791D, size: 0x8, addend: 0x0, symName: __ZL22ggml_backend_blas_freeP12ggml_backend, symObjAddr: 0x220, symBinAddr: 0x153D30, symSize: 0x90 }
  - { offset: 0x368EE2, size: 0x8, addend: 0x0, symName: __ZL31ggml_backend_blas_graph_computeP12ggml_backendP11ggml_cgraph, symObjAddr: 0x2B0, symBinAddr: 0x153DC0, symSize: 0x1240 }
  - { offset: 0x36A5C5, size: 0x8, addend: 0x0, symName: __ZNKSt3__16vectorINS_6futureIvEENS_9allocatorIS2_EEE20__throw_length_errorB8ne190102Ev, symObjAddr: 0x14F0, symBinAddr: 0x155000, symSize: 0x10 }
  - { offset: 0x36A60D, size: 0x8, addend: 0x0, symName: '__ZNSt3__110unique_ptrINS_5tupleIJNS0_INS_15__thread_structENS_14default_deleteIS2_EEEEMNS_19__async_assoc_stateIvNS_12__async_funcIZL25ggml_backend_blas_mul_matP25ggml_backend_blas_contextP11ggml_tensorE3$_0JEEEEEFvvEPSE_EEENS3_ISI_EEED1B8ne190102Ev', symObjAddr: 0x17D0, symBinAddr: 0x155220, symSize: 0x50 }
  - { offset: 0x36A872, size: 0x8, addend: 0x0, symName: '__ZNSt3__119__async_assoc_stateIvNS_12__async_funcIZL25ggml_backend_blas_mul_matP25ggml_backend_blas_contextP11ggml_tensorE3$_0JEEEED1Ev', symObjAddr: 0x15C0, symBinAddr: 0x155010, symSize: 0x40 }
  - { offset: 0x36A8F4, size: 0x8, addend: 0x0, symName: '__ZNSt3__119__async_assoc_stateIvNS_12__async_funcIZL25ggml_backend_blas_mul_matP25ggml_backend_blas_contextP11ggml_tensorE3$_0JEEEED0Ev', symObjAddr: 0x1600, symBinAddr: 0x155050, symSize: 0x50 }
  - { offset: 0x36A97F, size: 0x8, addend: 0x0, symName: '__ZNSt3__119__async_assoc_stateIvNS_12__async_funcIZL25ggml_backend_blas_mul_matP25ggml_backend_blas_contextP11ggml_tensorE3$_0JEEEE16__on_zero_sharedEv', symObjAddr: 0x1650, symBinAddr: 0x1550A0, symSize: 0x30 }
  - { offset: 0x36AA15, size: 0x8, addend: 0x0, symName: '__ZNSt3__119__async_assoc_stateIvNS_12__async_funcIZL25ggml_backend_blas_mul_matP25ggml_backend_blas_contextP11ggml_tensorE3$_0JEEEE9__executeEv', symObjAddr: 0x1680, symBinAddr: 0x1550D0, symSize: 0xC0 }
  - { offset: 0x36AC98, size: 0x8, addend: 0x0, symName: __ZL33ggml_backend_blas_device_get_nameP19ggml_backend_device, symObjAddr: 0x1820, symBinAddr: 0x155270, symSize: 0x10 }
  - { offset: 0x36ACC4, size: 0x8, addend: 0x0, symName: __ZL40ggml_backend_blas_device_get_descriptionP19ggml_backend_device, symObjAddr: 0x1830, symBinAddr: 0x155280, symSize: 0x10 }
  - { offset: 0x36ACF0, size: 0x8, addend: 0x0, symName: __ZL35ggml_backend_blas_device_get_memoryP19ggml_backend_devicePmS1_, symObjAddr: 0x1840, symBinAddr: 0x155290, symSize: 0x20 }
  - { offset: 0x36AD1B, size: 0x8, addend: 0x0, symName: __ZL33ggml_backend_blas_device_get_typeP19ggml_backend_device, symObjAddr: 0x1860, symBinAddr: 0x1552B0, symSize: 0x10 }
  - { offset: 0x36AD7A, size: 0x8, addend: 0x0, symName: __ZL34ggml_backend_blas_device_get_propsP19ggml_backend_deviceP22ggml_backend_dev_props, symObjAddr: 0x1870, symBinAddr: 0x1552C0, symSize: 0x30 }
  - { offset: 0x36AE05, size: 0x8, addend: 0x0, symName: __ZL37ggml_backend_blas_device_init_backendP19ggml_backend_devicePKc, symObjAddr: 0x18A0, symBinAddr: 0x1552F0, symSize: 0xD0 }
  - { offset: 0x36AEA8, size: 0x8, addend: 0x0, symName: __ZL40ggml_backend_blas_device_get_buffer_typeP19ggml_backend_device, symObjAddr: 0x1970, symBinAddr: 0x1553C0, symSize: 0x10 }
  - { offset: 0x36AEEF, size: 0x8, addend: 0x0, symName: __ZL45ggml_backend_blas_device_buffer_from_host_ptrP19ggml_backend_devicePvmm, symObjAddr: 0x1980, symBinAddr: 0x1553D0, symSize: 0x10 }
  - { offset: 0x36AF80, size: 0x8, addend: 0x0, symName: __ZL36ggml_backend_blas_device_supports_opP19ggml_backend_devicePK11ggml_tensor, symObjAddr: 0x1990, symBinAddr: 0x1553E0, symSize: 0x190 }
  - { offset: 0x36B11A, size: 0x8, addend: 0x0, symName: __ZL38ggml_backend_blas_device_supports_buftP19ggml_backend_deviceP24ggml_backend_buffer_type, symObjAddr: 0x1B20, symBinAddr: 0x155570, symSize: 0x10 }
...
